; ModuleID = 'divBy0.linked.bc'
target datalayout = "e-m:e-i64:64-f80:128-n8:16:32:64-S128"
target triple = "x86_64-unknown-linux-gnu"

%"class.std::map" = type { %"class.std::_Rb_tree" }
%"class.std::_Rb_tree" = type { %"struct.std::_Rb_tree<std::__cxx11::basic_string<char>, std::pair<const std::__cxx11::basic_string<char>, int>, std::_Select1st<std::pair<const std::__cxx11::basic_string<char>, int> >, std::less<std::__cxx11::basic_string<char> >, std::allocator<std::pair<const std::__cxx11::basic_string<char>, int> > >::_Rb_tree_impl" }
%"struct.std::_Rb_tree<std::__cxx11::basic_string<char>, std::pair<const std::__cxx11::basic_string<char>, int>, std::_Select1st<std::pair<const std::__cxx11::basic_string<char>, int> >, std::less<std::__cxx11::basic_string<char> >, std::allocator<std::pair<const std::__cxx11::basic_string<char>, int> > >::_Rb_tree_impl" = type { %"struct.std::less", %"struct.std::_Rb_tree_node_base", i64 }
%"struct.std::less" = type { i8 }
%"struct.std::_Rb_tree_node_base" = type { i32, %"struct.std::_Rb_tree_node_base"*, %"struct.std::_Rb_tree_node_base"*, %"struct.std::_Rb_tree_node_base"* }
%"class.std::basic_ostream" = type { i32 (...)**, %"class.std::basic_ios" }
%"class.std::basic_ios" = type { %"class.std::ios_base", %"class.std::basic_ostream"*, i8, i8, %"class.std::basic_streambuf"*, %"class.std::ctype"*, %"class.std::num_put"*, %"class.std::num_put"* }
%"class.std::ios_base" = type { i32 (...)**, i64, i64, i32, i32, i32, %"struct.std::ios_base::_Callback_list"*, %"struct.std::ios_base::_Words", [8 x %"struct.std::ios_base::_Words"], i32, %"struct.std::ios_base::_Words"*, %"class.std::locale" }
%"struct.std::ios_base::_Callback_list" = type { %"struct.std::ios_base::_Callback_list"*, void (i32, %"class.std::ios_base"*, i32)*, i32, i32 }
%"struct.std::ios_base::_Words" = type { i8*, i64 }
%"class.std::locale" = type { %"class.std::locale::_Impl"* }
%"class.std::locale::_Impl" = type { i32, %"class.std::locale::facet"**, i64, %"class.std::locale::facet"**, i8** }
%"class.std::locale::facet" = type <{ i32 (...)**, i32, [4 x i8] }>
%"class.std::basic_streambuf" = type { i32 (...)**, i8*, i8*, i8*, i8*, i8*, i8*, %"class.std::locale" }
%"class.std::ctype" = type <{ %"class.std::locale::facet.base", [4 x i8], %struct.__locale_struct*, i8, [7 x i8], i32*, i32*, i16*, i8, [256 x i8], [256 x i8], i8, [6 x i8] }>
%"class.std::locale::facet.base" = type <{ i32 (...)**, i32 }>
%struct.__locale_struct = type { [13 x %struct.__locale_data*], i16*, i32*, i32*, [13 x i8*] }
%struct.__locale_data = type opaque
%"class.std::num_put" = type { %"class.std::locale::facet.base", [4 x i8] }
%"class.std::__cxx11::basic_string" = type { %"struct.std::__cxx11::basic_string<char, std::char_traits<char>, std::allocator<char> >::_Alloc_hider", i64, %union.anon }
%"struct.std::__cxx11::basic_string<char, std::char_traits<char>, std::allocator<char> >::_Alloc_hider" = type { i8* }
%union.anon = type { i64, [8 x i8] }
%"struct.std::_Rb_tree_iterator" = type { %"struct.std::_Rb_tree_node_base"* }
%"struct.std::pair" = type <{ %"class.std::__cxx11::basic_string", i32, [4 x i8] }>
%"struct.std::_Rb_tree_node" = type { %"struct.std::_Rb_tree_node_base", %"struct.std::pair" }
%"struct.std::_Rb_tree<std::__cxx11::basic_string<char>, std::pair<const std::__cxx11::basic_string<char>, int>, std::_Select1st<std::pair<const std::__cxx11::basic_string<char>, int> >, std::less<std::__cxx11::basic_string<char> >, std::allocator<std::pair<const std::__cxx11::basic_string<char>, int> > >::_Alloc_node" = type { %"class.std::_Rb_tree"* }
%"struct.std::pair.6" = type { %"struct.std::_Rb_tree_node_base"*, %"struct.std::_Rb_tree_node_base"* }

$_ZNSt3mapINSt7__cxx1112basic_stringIcSt11char_traitsIcESaIcEEEiSt4lessIS5_ESaISt4pairIKS5_iEEE4findERS9_ = comdat any

$_ZNSt3mapINSt7__cxx1112basic_stringIcSt11char_traitsIcESaIcEEEiSt4lessIS5_ESaISt4pairIKS5_iEEE3endEv = comdat any

$_ZNKSt17_Rb_tree_iteratorISt4pairIKNSt7__cxx1112basic_stringIcSt11char_traitsIcESaIcEEEiEEeqERKS9_ = comdat any

$_ZNSt3mapINSt7__cxx1112basic_stringIcSt11char_traitsIcESaIcEEEiSt4lessIS5_ESaISt4pairIKS5_iEEEixERS9_ = comdat any

$__clang_call_terminate = comdat any

$_ZNSt3mapINSt7__cxx1112basic_stringIcSt11char_traitsIcESaIcEEEiSt4lessIS5_ESaISt4pairIKS5_iEEED2Ev = comdat any

$_ZNSt8_Rb_treeINSt7__cxx1112basic_stringIcSt11char_traitsIcESaIcEEESt4pairIKS5_iESt10_Select1stIS8_ESt4lessIS5_ESaIS8_EED2Ev = comdat any

$_ZNSt8_Rb_treeINSt7__cxx1112basic_stringIcSt11char_traitsIcESaIcEEESt4pairIKS5_iESt10_Select1stIS8_ESt4lessIS5_ESaIS8_EE8_M_eraseEPSt13_Rb_tree_nodeIS8_E = comdat any

$_ZNSt8_Rb_treeINSt7__cxx1112basic_stringIcSt11char_traitsIcESaIcEEESt4pairIKS5_iESt10_Select1stIS8_ESt4lessIS5_ESaIS8_EE8_S_rightEPSt18_Rb_tree_node_base = comdat any

$_ZNSt8_Rb_treeINSt7__cxx1112basic_stringIcSt11char_traitsIcESaIcEEESt4pairIKS5_iESt10_Select1stIS8_ESt4lessIS5_ESaIS8_EE7_S_leftEPSt18_Rb_tree_node_base = comdat any

$_ZNSt8_Rb_treeINSt7__cxx1112basic_stringIcSt11char_traitsIcESaIcEEESt4pairIKS5_iESt10_Select1stIS8_ESt4lessIS5_ESaIS8_EE12_M_drop_nodeEPSt13_Rb_tree_nodeIS8_E = comdat any

$_ZNSt8_Rb_treeINSt7__cxx1112basic_stringIcSt11char_traitsIcESaIcEEESt4pairIKS5_iESt10_Select1stIS8_ESt4lessIS5_ESaIS8_EE15_M_destroy_nodeEPSt13_Rb_tree_nodeIS8_E = comdat any

$_ZNKSt8_Rb_treeINSt7__cxx1112basic_stringIcSt11char_traitsIcESaIcEEESt4pairIKS5_iESt10_Select1stIS8_ESt4lessIS5_ESaIS8_EE13get_allocatorEv = comdat any

$_ZNKSt8_Rb_treeINSt7__cxx1112basic_stringIcSt11char_traitsIcESaIcEEESt4pairIKS5_iESt10_Select1stIS8_ESt4lessIS5_ESaIS8_EE21_M_get_Node_allocatorEv = comdat any

$_ZNSaISt4pairIKNSt7__cxx1112basic_stringIcSt11char_traitsIcESaIcEEEiEEC2ISt13_Rb_tree_nodeIS7_EEERKSaIT_E = comdat any

$_ZN9__gnu_cxx13new_allocatorISt4pairIKNSt7__cxx1112basic_stringIcSt11char_traitsIcESaIcEEEiEEC2Ev = comdat any

$_ZN9__gnu_cxx13new_allocatorISt4pairIKNSt7__cxx1112basic_stringIcSt11char_traitsIcESaIcEEEiEE7destroyEPS9_ = comdat any

$_ZNSt4pairIKNSt7__cxx1112basic_stringIcSt11char_traitsIcESaIcEEEiED2Ev = comdat any

$_ZNSt13_Rb_tree_nodeISt4pairIKNSt7__cxx1112basic_stringIcSt11char_traitsIcESaIcEEEiEE9_M_valptrEv = comdat any

$_ZSt11__addressofISt4pairIKNSt7__cxx1112basic_stringIcSt11char_traitsIcESaIcEEEiEEPT_RS9_ = comdat any

$_ZNSaISt4pairIKNSt7__cxx1112basic_stringIcSt11char_traitsIcESaIcEEEiEED2Ev = comdat any

$_ZN9__gnu_cxx13new_allocatorISt4pairIKNSt7__cxx1112basic_stringIcSt11char_traitsIcESaIcEEEiEED2Ev = comdat any

$_ZNSt8_Rb_treeINSt7__cxx1112basic_stringIcSt11char_traitsIcESaIcEEESt4pairIKS5_iESt10_Select1stIS8_ESt4lessIS5_ESaIS8_EE11_M_put_nodeEPSt13_Rb_tree_nodeIS8_E = comdat any

$_ZN9__gnu_cxx14__alloc_traitsISaISt13_Rb_tree_nodeISt4pairIKNSt7__cxx1112basic_stringIcSt11char_traitsIcESaIcEEEiEEEE10deallocateERSC_PSB_m = comdat any

$_ZN9__gnu_cxx13new_allocatorISt13_Rb_tree_nodeISt4pairIKNSt7__cxx1112basic_stringIcSt11char_traitsIcESaIcEEEiEEE10deallocateEPSB_m = comdat any

$_ZNSt8_Rb_treeINSt7__cxx1112basic_stringIcSt11char_traitsIcESaIcEEESt4pairIKS5_iESt10_Select1stIS8_ESt4lessIS5_ESaIS8_EE21_M_get_Node_allocatorEv = comdat any

$_ZNSt8_Rb_treeINSt7__cxx1112basic_stringIcSt11char_traitsIcESaIcEEESt4pairIKS5_iESt10_Select1stIS8_ESt4lessIS5_ESaIS8_EE8_M_beginEv = comdat any

$_ZNSt8_Rb_treeINSt7__cxx1112basic_stringIcSt11char_traitsIcESaIcEEESt4pairIKS5_iESt10_Select1stIS8_ESt4lessIS5_ESaIS8_EE13_Rb_tree_implISC_Lb0EED2Ev = comdat any

$_ZNSaISt13_Rb_tree_nodeISt4pairIKNSt7__cxx1112basic_stringIcSt11char_traitsIcESaIcEEEiEEED2Ev = comdat any

$_ZN9__gnu_cxx13new_allocatorISt13_Rb_tree_nodeISt4pairIKNSt7__cxx1112basic_stringIcSt11char_traitsIcESaIcEEEiEEED2Ev = comdat any

$_ZNSt3mapINSt7__cxx1112basic_stringIcSt11char_traitsIcESaIcEEEiSt4lessIS5_ESaISt4pairIKS5_iEEEC2Ev = comdat any

$_ZNSt8_Rb_treeINSt7__cxx1112basic_stringIcSt11char_traitsIcESaIcEEESt4pairIKS5_iESt10_Select1stIS8_ESt4lessIS5_ESaIS8_EEC2Ev = comdat any

$_ZNSt8_Rb_treeINSt7__cxx1112basic_stringIcSt11char_traitsIcESaIcEEESt4pairIKS5_iESt10_Select1stIS8_ESt4lessIS5_ESaIS8_EE13_Rb_tree_implISC_Lb0EEC2Ev = comdat any

$_ZNSaISt13_Rb_tree_nodeISt4pairIKNSt7__cxx1112basic_stringIcSt11char_traitsIcESaIcEEEiEEEC2Ev = comdat any

$_ZN9__gnu_cxx13new_allocatorISt13_Rb_tree_nodeISt4pairIKNSt7__cxx1112basic_stringIcSt11char_traitsIcESaIcEEEiEEEC2Ev = comdat any

$_ZNSt8_Rb_treeINSt7__cxx1112basic_stringIcSt11char_traitsIcESaIcEEESt4pairIKS5_iESt10_Select1stIS8_ESt4lessIS5_ESaIS8_EE13_Rb_tree_implISC_Lb0EE13_M_initializeEv = comdat any

$_ZNSt8_Rb_treeINSt7__cxx1112basic_stringIcSt11char_traitsIcESaIcEEESt4pairIKS5_iESt10_Select1stIS8_ESt4lessIS5_ESaIS8_EE4findERS7_ = comdat any

$_ZNSt8_Rb_treeINSt7__cxx1112basic_stringIcSt11char_traitsIcESaIcEEESt4pairIKS5_iESt10_Select1stIS8_ESt4lessIS5_ESaIS8_EE14_M_lower_boundEPSt13_Rb_tree_nodeIS8_ESH_RS7_ = comdat any

$_ZNSt8_Rb_treeINSt7__cxx1112basic_stringIcSt11char_traitsIcESaIcEEESt4pairIKS5_iESt10_Select1stIS8_ESt4lessIS5_ESaIS8_EE6_S_keyEPKSt13_Rb_tree_nodeIS8_E = comdat any

$_ZNKSt10_Select1stISt4pairIKNSt7__cxx1112basic_stringIcSt11char_traitsIcESaIcEEEiEEclERKS8_ = comdat any

$_ZNSt8_Rb_treeINSt7__cxx1112basic_stringIcSt11char_traitsIcESaIcEEESt4pairIKS5_iESt10_Select1stIS8_ESt4lessIS5_ESaIS8_EE8_S_valueEPKSt13_Rb_tree_nodeIS8_E = comdat any

$_ZNKSt13_Rb_tree_nodeISt4pairIKNSt7__cxx1112basic_stringIcSt11char_traitsIcESaIcEEEiEE9_M_valptrEv = comdat any

$_ZSt11__addressofIKSt4pairIKNSt7__cxx1112basic_stringIcSt11char_traitsIcESaIcEEEiEEPT_RSA_ = comdat any

$_ZNSt17_Rb_tree_iteratorISt4pairIKNSt7__cxx1112basic_stringIcSt11char_traitsIcESaIcEEEiEEC2EPSt18_Rb_tree_node_base = comdat any

$_ZNSt8_Rb_treeINSt7__cxx1112basic_stringIcSt11char_traitsIcESaIcEEESt4pairIKS5_iESt10_Select1stIS8_ESt4lessIS5_ESaIS8_EE6_M_endEv = comdat any

$_ZNSt8_Rb_treeINSt7__cxx1112basic_stringIcSt11char_traitsIcESaIcEEESt4pairIKS5_iESt10_Select1stIS8_ESt4lessIS5_ESaIS8_EE3endEv = comdat any

$_ZNKSt4lessINSt7__cxx1112basic_stringIcSt11char_traitsIcESaIcEEEEclERKS5_S8_ = comdat any

$_ZStltIcSt11char_traitsIcESaIcEEbRKNSt7__cxx1112basic_stringIT_T0_T1_EESA_ = comdat any

$_ZNSt8_Rb_treeINSt7__cxx1112basic_stringIcSt11char_traitsIcESaIcEEESt4pairIKS5_iESt10_Select1stIS8_ESt4lessIS5_ESaIS8_EE6_S_keyEPKSt18_Rb_tree_node_base = comdat any

$_ZNSt8_Rb_treeINSt7__cxx1112basic_stringIcSt11char_traitsIcESaIcEEESt4pairIKS5_iESt10_Select1stIS8_ESt4lessIS5_ESaIS8_EE8_S_valueEPKSt18_Rb_tree_node_base = comdat any

$_ZNSt3mapINSt7__cxx1112basic_stringIcSt11char_traitsIcESaIcEEEiSt4lessIS5_ESaISt4pairIKS5_iEEE11lower_boundERS9_ = comdat any

$_ZNSt8_Rb_treeINSt7__cxx1112basic_stringIcSt11char_traitsIcESaIcEEESt4pairIKS5_iESt10_Select1stIS8_ESt4lessIS5_ESaIS8_EE11lower_boundERS7_ = comdat any

$_ZNKSt3mapINSt7__cxx1112basic_stringIcSt11char_traitsIcESaIcEEEiSt4lessIS5_ESaISt4pairIKS5_iEEE8key_compEv = comdat any

$_ZNKSt8_Rb_treeINSt7__cxx1112basic_stringIcSt11char_traitsIcESaIcEEESt4pairIKS5_iESt10_Select1stIS8_ESt4lessIS5_ESaIS8_EE8key_compEv = comdat any

$_ZNKSt17_Rb_tree_iteratorISt4pairIKNSt7__cxx1112basic_stringIcSt11char_traitsIcESaIcEEEiEEdeEv = comdat any

$_ZNSt3mapINSt7__cxx1112basic_stringIcSt11char_traitsIcESaIcEEEiSt4lessIS5_ESaISt4pairIKS5_iEEE6insertESt17_Rb_tree_iteratorISA_ERKSA_ = comdat any

$_ZNSt8_Rb_treeINSt7__cxx1112basic_stringIcSt11char_traitsIcESaIcEEESt4pairIKS5_iESt10_Select1stIS8_ESt4lessIS5_ESaIS8_EE17_M_insert_unique_ESt23_Rb_tree_const_iteratorIS8_ERKS8_ = comdat any

$_ZNSt8_Rb_treeINSt7__cxx1112basic_stringIcSt11char_traitsIcESaIcEEESt4pairIKS5_iESt10_Select1stIS8_ESt4lessIS5_ESaIS8_EE11_Alloc_nodeC2ERSE_ = comdat any

$_ZNSt8_Rb_treeINSt7__cxx1112basic_stringIcSt11char_traitsIcESaIcEEESt4pairIKS5_iESt10_Select1stIS8_ESt4lessIS5_ESaIS8_EE17_M_insert_unique_INSE_11_Alloc_nodeEEESt17_Rb_tree_iteratorIS8_ESt23_Rb_tree_const_iteratorIS8_ERKS8_RT_ = comdat any

$_ZNSt8_Rb_treeINSt7__cxx1112basic_stringIcSt11char_traitsIcESaIcEEESt4pairIKS5_iESt10_Select1stIS8_ESt4lessIS5_ESaIS8_EE29_M_get_insert_hint_unique_posESt23_Rb_tree_const_iteratorIS8_ERS7_ = comdat any

$_ZNKSt23_Rb_tree_const_iteratorISt4pairIKNSt7__cxx1112basic_stringIcSt11char_traitsIcESaIcEEEiEE13_M_const_castEv = comdat any

$_ZNKSt8_Rb_treeINSt7__cxx1112basic_stringIcSt11char_traitsIcESaIcEEESt4pairIKS5_iESt10_Select1stIS8_ESt4lessIS5_ESaIS8_EE4sizeEv = comdat any

$_ZNSt8_Rb_treeINSt7__cxx1112basic_stringIcSt11char_traitsIcESaIcEEESt4pairIKS5_iESt10_Select1stIS8_ESt4lessIS5_ESaIS8_EE12_M_rightmostEv = comdat any

$_ZNSt4pairIPSt18_Rb_tree_node_baseS1_EC2ERKS1_S4_ = comdat any

$_ZNSt8_Rb_treeINSt7__cxx1112basic_stringIcSt11char_traitsIcESaIcEEESt4pairIKS5_iESt10_Select1stIS8_ESt4lessIS5_ESaIS8_EE24_M_get_insert_unique_posERS7_ = comdat any

$_ZNSt8_Rb_treeINSt7__cxx1112basic_stringIcSt11char_traitsIcESaIcEEESt4pairIKS5_iESt10_Select1stIS8_ESt4lessIS5_ESaIS8_EE5beginEv = comdat any

$_ZNSt8_Rb_treeINSt7__cxx1112basic_stringIcSt11char_traitsIcESaIcEEESt4pairIKS5_iESt10_Select1stIS8_ESt4lessIS5_ESaIS8_EE11_M_leftmostEv = comdat any

$_ZNSt17_Rb_tree_iteratorISt4pairIKNSt7__cxx1112basic_stringIcSt11char_traitsIcESaIcEEEiEEmmEv = comdat any

$_ZNSt17_Rb_tree_iteratorISt4pairIKNSt7__cxx1112basic_stringIcSt11char_traitsIcESaIcEEEiEEppEv = comdat any

$_ZNSt8_Rb_treeINSt7__cxx1112basic_stringIcSt11char_traitsIcESaIcEEESt4pairIKS5_iESt10_Select1stIS8_ESt4lessIS5_ESaIS8_EE10_M_insert_INSE_11_Alloc_nodeEEESt17_Rb_tree_iteratorIS8_EPSt18_Rb_tree_node_baseSK_RKS8_RT_ = comdat any

$_ZNKSt8_Rb_treeINSt7__cxx1112basic_stringIcSt11char_traitsIcESaIcEEESt4pairIKS5_iESt10_Select1stIS8_ESt4lessIS5_ESaIS8_EE11_Alloc_nodeclIS8_EEPSt13_Rb_tree_nodeIS8_ERKT_ = comdat any

$_ZNSt8_Rb_treeINSt7__cxx1112basic_stringIcSt11char_traitsIcESaIcEEESt4pairIKS5_iESt10_Select1stIS8_ESt4lessIS5_ESaIS8_EE14_M_create_nodeERKS8_ = comdat any

$_ZNSt8_Rb_treeINSt7__cxx1112basic_stringIcSt11char_traitsIcESaIcEEESt4pairIKS5_iESt10_Select1stIS8_ESt4lessIS5_ESaIS8_EE11_M_get_nodeEv = comdat any

$_ZN9__gnu_cxx14__alloc_traitsISaISt13_Rb_tree_nodeISt4pairIKNSt7__cxx1112basic_stringIcSt11char_traitsIcESaIcEEEiEEEE8allocateERSC_m = comdat any

$_ZN9__gnu_cxx13new_allocatorISt13_Rb_tree_nodeISt4pairIKNSt7__cxx1112basic_stringIcSt11char_traitsIcESaIcEEEiEEE8allocateEmPKv = comdat any

$_ZNK9__gnu_cxx13new_allocatorISt13_Rb_tree_nodeISt4pairIKNSt7__cxx1112basic_stringIcSt11char_traitsIcESaIcEEEiEEE8max_sizeEv = comdat any

$_ZNSt8_Rb_treeINSt7__cxx1112basic_stringIcSt11char_traitsIcESaIcEEESt4pairIKS5_iESt10_Select1stIS8_ESt4lessIS5_ESaIS8_EE17_M_construct_nodeEPSt13_Rb_tree_nodeIS8_ERKS8_ = comdat any

$_ZN9__gnu_cxx13new_allocatorISt4pairIKNSt7__cxx1112basic_stringIcSt11char_traitsIcESaIcEEEiEE9constructEPS9_RKS9_ = comdat any

$_ZNSt4pairIKNSt7__cxx1112basic_stringIcSt11char_traitsIcESaIcEEEiEC2ERKS7_ = comdat any

$_ZNSt23_Rb_tree_const_iteratorISt4pairIKNSt7__cxx1112basic_stringIcSt11char_traitsIcESaIcEEEiEEC2ERKSt17_Rb_tree_iteratorIS8_E = comdat any

$_ZNSt4pairIKNSt7__cxx1112basic_stringIcSt11char_traitsIcESaIcEEEiEC2ERS6_RKi = comdat any

@.str = private unnamed_addr constant [4 x i8] c"%d\0A\00", align 1
@__dso_handle = external global i8
@level = global i32 0, align 4
@nodeNumber = global i32 0, align 4
@nodes = global %"class.std::map" zeroinitializer, align 8
@_ZSt4cerr = external global %"class.std::basic_ostream"
@llvm.global_ctors = appending global [1 x { i32, void ()*, i8* }] [{ i32, void ()*, i8* } { i32 65535, void ()* @_GLOBAL__sub_I_printLine.cpp, i8* null }]
@.str3 = private unnamed_addr constant [9 x i8] c"%s,%d,%d\00", align 1
@.str2 = private unnamed_addr constant [2 x i8] c"\0A\00", align 1
@.str34 = private unnamed_addr constant [5 x i8] c" = (\00", align 1
@.str4 = private unnamed_addr constant [3 x i8] c")\0A\00", align 1
@.str5 = private unnamed_addr constant [2 x i8] c",\00", align 1
@.str6 = private unnamed_addr constant [6 x i8] c"%s,%d\00", align 1
@.str7 = private unnamed_addr constant [4 x i8] c"|  \00", align 1
@.str8 = private unnamed_addr constant [26 x i8] c"Enter BasicBlock in file \00", align 1
@.str9 = private unnamed_addr constant [12 x i8] c" at line # \00", align 1
@.str10 = private unnamed_addr constant [16 x i8] c"Exit BasicBlock\00", align 1
@_ZStL8__ioinit = internal global %"struct.std::less" zeroinitializer, align 1

; Function Attrs: nounwind uwtable
define i32 @_Z4divdii(i32 %n1, i32 %n2) #0 {
entry:
  %n1.addr = alloca i32, align 4
  %n2.addr = alloca i32, align 4
  store i32 %n1, i32* %n1.addr, align 4
  call void (...) bitcast (void (i32)* @_Z10printTracei to void (...)*)(i32 0), !dbg !1375
  call void @llvm.dbg.declare(metadata i32* %n1.addr, metadata !1376, metadata !1377), !dbg !1375
  store i32 %n2, i32* %n2.addr, align 4
  call void (...) bitcast (void (i32)* @_Z10printTracei to void (...)*)(i32 1), !dbg !1378
  call void @llvm.dbg.declare(metadata i32* %n2.addr, metadata !1379, metadata !1377), !dbg !1378
  call void (...) bitcast (void (i32)* @_Z10printTracei to void (...)*)(i32 2), !dbg !1380
  %0 = load i32, i32* %n1.addr, align 4, !dbg !1380
  call void (...) bitcast (void (i32)* @_Z10printTracei to void (...)*)(i32 3), !dbg !1381
  %1 = load i32, i32* %n2.addr, align 4, !dbg !1381
  call void (...) bitcast (void (i32)* @_Z10printTracei to void (...)*)(i32 4), !dbg !1382
  %div = sdiv i32 %0, %1, !dbg !1382
  call void (...) bitcast (void (i32)* @_Z10printTracei to void (...)*)(i32 5), !dbg !1383
  ret i32 %div, !dbg !1383
}

; Function Attrs: nounwind readnone
declare void @llvm.dbg.declare(metadata, metadata, metadata) #1

; Function Attrs: uwtable
define i32 @main(i32 %argc, i8** %argv) #2 {
entry:
  %retval = alloca i32, align 4
  %argc.addr = alloca i32, align 4
  %argv.addr = alloca i8**, align 8
  %a = alloca i32, align 4
  %b = alloca i32, align 4
  %c = alloca i32, align 4
  store i32 0, i32* %retval
  store i32 %argc, i32* %argc.addr, align 4
  call void (...) bitcast (void (i32)* @_Z10printTracei to void (...)*)(i32 6), !dbg !1384
  call void @llvm.dbg.declare(metadata i32* %argc.addr, metadata !1385, metadata !1377), !dbg !1384
  store i8** %argv, i8*** %argv.addr, align 8
  call void (...) bitcast (void (i32)* @_Z10printTracei to void (...)*)(i32 7), !dbg !1386
  call void @llvm.dbg.declare(metadata i8*** %argv.addr, metadata !1387, metadata !1377), !dbg !1386
  call void (...) bitcast (void (i32)* @_Z10printTracei to void (...)*)(i32 8), !dbg !1388
  call void @llvm.dbg.declare(metadata i32* %a, metadata !1389, metadata !1377), !dbg !1388
  call void (...) bitcast (void (i32)* @_Z10printTracei to void (...)*)(i32 9), !dbg !1390
  call void @llvm.dbg.declare(metadata i32* %b, metadata !1391, metadata !1377), !dbg !1390
  call void (...) bitcast (void (i32)* @_Z10printTracei to void (...)*)(i32 10), !dbg !1392
  %0 = load i32, i32* %argc.addr, align 4, !dbg !1392
  call void (...) bitcast (void (i32)* @_Z10printTracei to void (...)*)(i32 11), !dbg !1394
  %cmp = icmp sle i32 %0, 1, !dbg !1394
  call void (...) bitcast (void (i32)* @_Z10printTracei to void (...)*)(i32 12), !dbg !1395
  br i1 %cmp, label %if.then, label %if.else, !dbg !1395

if.then:                                          ; preds = %entry
  call void (...) bitcast (void (i32)* @_Z10printTracei to void (...)*)(i32 13), !dbg !1396
  store i32 10, i32* %a, align 4, !dbg !1396
  call void (...) bitcast (void (i32)* @_Z10printTracei to void (...)*)(i32 14), !dbg !1397
  store i32 1, i32* %b, align 4, !dbg !1397
  call void (...) bitcast (void (i32)* @_Z10printTracei to void (...)*)(i32 15), !dbg !1398
  br label %if.end6, !dbg !1398

if.else:                                          ; preds = %entry
  call void (...) bitcast (void (i32)* @_Z10printTracei to void (...)*)(i32 16), !dbg !1399
  %1 = load i8**, i8*** %argv.addr, align 8, !dbg !1399
  call void (...) bitcast (void (i32)* @_Z10printTracei to void (...)*)(i32 16), !dbg !1399
  %arrayidx = getelementptr inbounds i8*, i8** %1, i64 1, !dbg !1399
  call void (...) bitcast (void (i32)* @_Z10printTracei to void (...)*)(i32 16), !dbg !1399
  %2 = load i8*, i8** %arrayidx, align 8, !dbg !1399
  call void (...) bitcast (void (i32)* @_Z10printTracei to void (...)*)(i32 17), !dbg !1401
  %call = call i32 @atoi(i8* %2) #13, !dbg !1401
  call void (...) bitcast (void (i32)* @_Z10printTracei to void (...)*)(i32 18), !dbg !1402
  store i32 %call, i32* %a, align 4, !dbg !1402
  call void (...) bitcast (void (i32)* @_Z10printTracei to void (...)*)(i32 19), !dbg !1403
  call void @llvm.dbg.declare(metadata i32* %c, metadata !1404, metadata !1377), !dbg !1403
  call void (...) bitcast (void (i32)* @_Z10printTracei to void (...)*)(i32 20), !dbg !1405
  %3 = load i32, i32* %a, align 4, !dbg !1405
  call void (...) bitcast (void (i32)* @_Z10printTracei to void (...)*)(i32 19), !dbg !1403
  store i32 %3, i32* %c, align 4, !dbg !1403
  call void (...) bitcast (void (i32)* @_Z10printTracei to void (...)*)(i32 21), !dbg !1406
  %4 = load i32, i32* %argc.addr, align 4, !dbg !1406
  call void (...) bitcast (void (i32)* @_Z10printTracei to void (...)*)(i32 22), !dbg !1408
  %cmp1 = icmp sle i32 %4, 2, !dbg !1408
  call void (...) bitcast (void (i32)* @_Z10printTracei to void (...)*)(i32 23), !dbg !1409
  br i1 %cmp1, label %if.then2, label %if.else3, !dbg !1409

if.then2:                                         ; preds = %if.else
  call void (...) bitcast (void (i32)* @_Z10printTracei to void (...)*)(i32 24), !dbg !1410
  store i32 0, i32* %b, align 4, !dbg !1410
  call void (...) bitcast (void (i32)* @_Z10printTracei to void (...)*)(i32 25), !dbg !1411
  br label %if.end, !dbg !1411

if.else3:                                         ; preds = %if.else
  call void (...) bitcast (void (i32)* @_Z10printTracei to void (...)*)(i32 26), !dbg !1412
  %5 = load i8**, i8*** %argv.addr, align 8, !dbg !1412
  call void (...) bitcast (void (i32)* @_Z10printTracei to void (...)*)(i32 26), !dbg !1412
  %arrayidx4 = getelementptr inbounds i8*, i8** %5, i64 2, !dbg !1412
  call void (...) bitcast (void (i32)* @_Z10printTracei to void (...)*)(i32 26), !dbg !1412
  %6 = load i8*, i8** %arrayidx4, align 8, !dbg !1412
  call void (...) bitcast (void (i32)* @_Z10printTracei to void (...)*)(i32 27), !dbg !1413
  %call5 = call i32 @atoi(i8* %6) #13, !dbg !1413
  call void (...) bitcast (void (i32)* @_Z10printTracei to void (...)*)(i32 28), !dbg !1414
  store i32 %call5, i32* %b, align 4, !dbg !1414
  br label %if.end

if.end:                                           ; preds = %if.else3, %if.then2
  br label %if.end6

if.end6:                                          ; preds = %if.end, %if.then
  call void (...) bitcast (void (i32)* @_Z10printTracei to void (...)*)(i32 29), !dbg !1415
  %7 = load i32, i32* %a, align 4, !dbg !1415
  call void (...) bitcast (void (i32)* @_Z10printTracei to void (...)*)(i32 30), !dbg !1416
  %8 = load i32, i32* %b, align 4, !dbg !1416
  call void (...) bitcast (void (i32)* @_Z10printTracei to void (...)*)(i32 31), !dbg !1417
  %call7 = call i32 @_Z4divdii(i32 %7, i32 %8), !dbg !1417
  call void (...) bitcast (void (i32)* @_Z10printTracei to void (...)*)(i32 32), !dbg !1418
  %call8 = call i32 (i8*, ...) @printf(i8* getelementptr inbounds ([4 x i8], [4 x i8]* @.str, i32 0, i32 0), i32 %call7), !dbg !1418
  call void (...) bitcast (void (i32)* @_Z10printTracei to void (...)*)(i32 33), !dbg !1419
  ret i32 0, !dbg !1419
}

; Function Attrs: nounwind readonly
declare i32 @atoi(i8*) #3

declare i32 @printf(i8*, ...) #4

declare void @_ZNSt8ios_base4InitC1Ev(%"struct.std::less"*) #4

declare void @_ZNSt8ios_base4InitD1Ev(%"struct.std::less"*) #4

; Function Attrs: nounwind
declare i32 @__cxa_atexit(void (i8*)*, i8*, i8*) #5

; Function Attrs: uwtable
define void @_Z12printBBTracePcii(i8* %filename, i32 %start, i32 %end) #2 {
entry:
  %filename.addr = alloca i8*, align 8
  %start.addr = alloca i32, align 4
  %end.addr = alloca i32, align 4
  %key = alloca [128 x i8], align 16
  %ref.tmp = alloca %"class.std::__cxx11::basic_string", align 8
  %ref.tmp2 = alloca %"struct.std::less", align 1
  %exn.slot = alloca i8*
  %ehselector.slot = alloca i32
  %coerce = alloca %"struct.std::_Rb_tree_iterator", align 8
  %ref.tmp6 = alloca %"struct.std::_Rb_tree_iterator", align 8
  %ref.tmp14 = alloca %"class.std::__cxx11::basic_string", align 8
  %ref.tmp16 = alloca %"struct.std::less", align 1
  %ref.tmp33 = alloca %"class.std::__cxx11::basic_string", align 8
  %ref.tmp35 = alloca %"struct.std::less", align 1
  store i8* %filename, i8** %filename.addr, align 8
  call void @llvm.dbg.declare(metadata i8** %filename.addr, metadata !1420, metadata !1377), !dbg !1421
  store i32 %start, i32* %start.addr, align 4
  call void @llvm.dbg.declare(metadata i32* %start.addr, metadata !1422, metadata !1377), !dbg !1423
  store i32 %end, i32* %end.addr, align 4
  call void @llvm.dbg.declare(metadata i32* %end.addr, metadata !1424, metadata !1377), !dbg !1425
  call void @llvm.dbg.declare(metadata [128 x i8]* %key, metadata !1426, metadata !1377), !dbg !1430
  %arraydecay = getelementptr inbounds [128 x i8], [128 x i8]* %key, i32 0, i32 0, !dbg !1431
  %0 = load i8*, i8** %filename.addr, align 8, !dbg !1432
  %1 = load i32, i32* %start.addr, align 4, !dbg !1433
  %2 = load i32, i32* %end.addr, align 4, !dbg !1434
  %call = call i32 (i8*, i8*, ...) @sprintf(i8* %arraydecay, i8* getelementptr inbounds ([9 x i8], [9 x i8]* @.str3, i32 0, i32 0), i8* %0, i32 %1, i32 %2) #5, !dbg !1435
  %arraydecay1 = getelementptr inbounds [128 x i8], [128 x i8]* %key, i32 0, i32 0, !dbg !1436
  call void @_ZNSaIcEC1Ev(%"struct.std::less"* %ref.tmp2) #5, !dbg !1438
  invoke void @_ZNSt7__cxx1112basic_stringIcSt11char_traitsIcESaIcEEC1EPKcRKS3_(%"class.std::__cxx11::basic_string"* %ref.tmp, i8* %arraydecay1, %"struct.std::less"* dereferenceable(1) %ref.tmp2)
          to label %invoke.cont unwind label %lpad, !dbg !1438

invoke.cont:                                      ; preds = %entry
  %call5 = invoke %"struct.std::_Rb_tree_node_base"* @_ZNSt3mapINSt7__cxx1112basic_stringIcSt11char_traitsIcESaIcEEEiSt4lessIS5_ESaISt4pairIKS5_iEEE4findERS9_(%"class.std::map"* @nodes, %"class.std::__cxx11::basic_string"* dereferenceable(32) %ref.tmp)
          to label %invoke.cont4 unwind label %lpad3, !dbg !1439

invoke.cont4:                                     ; preds = %invoke.cont
  %coerce.dive = getelementptr %"struct.std::_Rb_tree_iterator", %"struct.std::_Rb_tree_iterator"* %coerce, i32 0, i32 0, !dbg !1441
  store %"struct.std::_Rb_tree_node_base"* %call5, %"struct.std::_Rb_tree_node_base"** %coerce.dive, !dbg !1441
  %call8 = invoke %"struct.std::_Rb_tree_node_base"* @_ZNSt3mapINSt7__cxx1112basic_stringIcSt11char_traitsIcESaIcEEEiSt4lessIS5_ESaISt4pairIKS5_iEEE3endEv(%"class.std::map"* @nodes)
          to label %invoke.cont7 unwind label %lpad3, !dbg !1443

invoke.cont7:                                     ; preds = %invoke.cont4
  %coerce.dive9 = getelementptr %"struct.std::_Rb_tree_iterator", %"struct.std::_Rb_tree_iterator"* %ref.tmp6, i32 0, i32 0, !dbg !1444
  store %"struct.std::_Rb_tree_node_base"* %call8, %"struct.std::_Rb_tree_node_base"** %coerce.dive9, !dbg !1444
  %call11 = invoke zeroext i1 @_ZNKSt17_Rb_tree_iteratorISt4pairIKNSt7__cxx1112basic_stringIcSt11char_traitsIcESaIcEEEiEEeqERKS9_(%"struct.std::_Rb_tree_iterator"* %coerce, %"struct.std::_Rb_tree_iterator"* dereferenceable(8) %ref.tmp6)
          to label %invoke.cont10 unwind label %lpad3, !dbg !1446

invoke.cont10:                                    ; preds = %invoke.cont7
  invoke void @_ZNSt7__cxx1112basic_stringIcSt11char_traitsIcESaIcEED1Ev(%"class.std::__cxx11::basic_string"* %ref.tmp)
          to label %invoke.cont12 unwind label %lpad, !dbg !1447

invoke.cont12:                                    ; preds = %invoke.cont10
  call void @_ZNSaIcED1Ev(%"struct.std::less"* %ref.tmp2) #5, !dbg !1449
  br i1 %call11, label %if.then, label %if.end, !dbg !1451

if.then:                                          ; preds = %invoke.cont12
  %3 = load i32, i32* @nodeNumber, align 4, !dbg !1452
  %arraydecay15 = getelementptr inbounds [128 x i8], [128 x i8]* %key, i32 0, i32 0, !dbg !1454
  call void @_ZNSaIcEC1Ev(%"struct.std::less"* %ref.tmp16) #5, !dbg !1455
  invoke void @_ZNSt7__cxx1112basic_stringIcSt11char_traitsIcESaIcEEC1EPKcRKS3_(%"class.std::__cxx11::basic_string"* %ref.tmp14, i8* %arraydecay15, %"struct.std::less"* dereferenceable(1) %ref.tmp16)
          to label %invoke.cont18 unwind label %lpad17, !dbg !1455

invoke.cont18:                                    ; preds = %if.then
  %call21 = invoke dereferenceable(4) i32* @_ZNSt3mapINSt7__cxx1112basic_stringIcSt11char_traitsIcESaIcEEEiSt4lessIS5_ESaISt4pairIKS5_iEEEixERS9_(%"class.std::map"* @nodes, %"class.std::__cxx11::basic_string"* dereferenceable(32) %ref.tmp14)
          to label %invoke.cont20 unwind label %lpad19, !dbg !1456

invoke.cont20:                                    ; preds = %invoke.cont18
  store i32 %3, i32* %call21, !dbg !1458
  invoke void @_ZNSt7__cxx1112basic_stringIcSt11char_traitsIcESaIcEED1Ev(%"class.std::__cxx11::basic_string"* %ref.tmp14)
          to label %invoke.cont22 unwind label %lpad17, !dbg !1460

invoke.cont22:                                    ; preds = %invoke.cont20
  call void @_ZNSaIcED1Ev(%"struct.std::less"* %ref.tmp16) #5, !dbg !1461
  %call26 = call dereferenceable(272) %"class.std::basic_ostream"* @_ZStlsISt11char_traitsIcEERSt13basic_ostreamIcT_ES5_PKc(%"class.std::basic_ostream"* dereferenceable(272) @_ZSt4cerr, i8* getelementptr inbounds ([2 x i8], [2 x i8]* @.str2, i32 0, i32 0)), !dbg !1463
  %4 = load i32, i32* @nodeNumber, align 4, !dbg !1464
  %inc = add nsw i32 %4, 1, !dbg !1464
  store i32 %inc, i32* @nodeNumber, align 4, !dbg !1464
  %call27 = call dereferenceable(272) %"class.std::basic_ostream"* @_ZNSolsEi(%"class.std::basic_ostream"* %call26, i32 %4), !dbg !1465
  %call28 = call dereferenceable(272) %"class.std::basic_ostream"* @_ZStlsISt11char_traitsIcEERSt13basic_ostreamIcT_ES5_PKc(%"class.std::basic_ostream"* dereferenceable(272) %call27, i8* getelementptr inbounds ([5 x i8], [5 x i8]* @.str34, i32 0, i32 0)), !dbg !1466
  %arraydecay29 = getelementptr inbounds [128 x i8], [128 x i8]* %key, i32 0, i32 0, !dbg !1467
  %call30 = call dereferenceable(272) %"class.std::basic_ostream"* @_ZStlsISt11char_traitsIcEERSt13basic_ostreamIcT_ES5_PKc(%"class.std::basic_ostream"* dereferenceable(272) %call28, i8* %arraydecay29), !dbg !1468
  %call31 = call dereferenceable(272) %"class.std::basic_ostream"* @_ZStlsISt11char_traitsIcEERSt13basic_ostreamIcT_ES5_PKc(%"class.std::basic_ostream"* dereferenceable(272) %call30, i8* getelementptr inbounds ([3 x i8], [3 x i8]* @.str4, i32 0, i32 0)), !dbg !1469
  br label %if.end, !dbg !1470

lpad:                                             ; preds = %invoke.cont10, %entry
  %5 = landingpad { i8*, i32 } personality i8* bitcast (i32 (...)* @__gxx_personality_v0 to i8*)
          cleanup, !dbg !1471
  %6 = extractvalue { i8*, i32 } %5, 0, !dbg !1471
  store i8* %6, i8** %exn.slot, !dbg !1471
  %7 = extractvalue { i8*, i32 } %5, 1, !dbg !1471
  store i32 %7, i32* %ehselector.slot, !dbg !1471
  br label %ehcleanup, !dbg !1471

lpad3:                                            ; preds = %invoke.cont7, %invoke.cont4, %invoke.cont
  %8 = landingpad { i8*, i32 } personality i8* bitcast (i32 (...)* @__gxx_personality_v0 to i8*)
          cleanup, !dbg !1471
  %9 = extractvalue { i8*, i32 } %8, 0, !dbg !1471
  store i8* %9, i8** %exn.slot, !dbg !1471
  %10 = extractvalue { i8*, i32 } %8, 1, !dbg !1471
  store i32 %10, i32* %ehselector.slot, !dbg !1471
  invoke void @_ZNSt7__cxx1112basic_stringIcSt11char_traitsIcESaIcEED1Ev(%"class.std::__cxx11::basic_string"* %ref.tmp)
          to label %invoke.cont13 unwind label %terminate.lpad, !dbg !1472

invoke.cont13:                                    ; preds = %lpad3
  br label %ehcleanup, !dbg !1473

ehcleanup:                                        ; preds = %invoke.cont13, %lpad
  call void @_ZNSaIcED1Ev(%"struct.std::less"* %ref.tmp2) #5, !dbg !1475
  br label %eh.resume, !dbg !1475

lpad17:                                           ; preds = %invoke.cont20, %if.then
  %11 = landingpad { i8*, i32 } personality i8* bitcast (i32 (...)* @__gxx_personality_v0 to i8*)
          cleanup, !dbg !1477
  %12 = extractvalue { i8*, i32 } %11, 0, !dbg !1477
  store i8* %12, i8** %exn.slot, !dbg !1477
  %13 = extractvalue { i8*, i32 } %11, 1, !dbg !1477
  store i32 %13, i32* %ehselector.slot, !dbg !1477
  br label %ehcleanup25, !dbg !1477

lpad19:                                           ; preds = %invoke.cont18
  %14 = landingpad { i8*, i32 } personality i8* bitcast (i32 (...)* @__gxx_personality_v0 to i8*)
          cleanup, !dbg !1477
  %15 = extractvalue { i8*, i32 } %14, 0, !dbg !1477
  store i8* %15, i8** %exn.slot, !dbg !1477
  %16 = extractvalue { i8*, i32 } %14, 1, !dbg !1477
  store i32 %16, i32* %ehselector.slot, !dbg !1477
  invoke void @_ZNSt7__cxx1112basic_stringIcSt11char_traitsIcESaIcEED1Ev(%"class.std::__cxx11::basic_string"* %ref.tmp14)
          to label %invoke.cont24 unwind label %terminate.lpad, !dbg !1460

invoke.cont24:                                    ; preds = %lpad19
  br label %ehcleanup25, !dbg !1478

ehcleanup25:                                      ; preds = %invoke.cont24, %lpad17
  call void @_ZNSaIcED1Ev(%"struct.std::less"* %ref.tmp16) #5, !dbg !1480
  br label %eh.resume, !dbg !1480

if.end:                                           ; preds = %invoke.cont22, %invoke.cont12
  %call32 = call dereferenceable(272) %"class.std::basic_ostream"* @_ZStlsISt11char_traitsIcEERSt13basic_ostreamIcT_ES5_PKc(%"class.std::basic_ostream"* dereferenceable(272) @_ZSt4cerr, i8* getelementptr inbounds ([2 x i8], [2 x i8]* @.str5, i32 0, i32 0)), !dbg !1482
  %arraydecay34 = getelementptr inbounds [128 x i8], [128 x i8]* %key, i32 0, i32 0, !dbg !1483
  call void @_ZNSaIcEC1Ev(%"struct.std::less"* %ref.tmp35) #5, !dbg !1484
  invoke void @_ZNSt7__cxx1112basic_stringIcSt11char_traitsIcESaIcEEC1EPKcRKS3_(%"class.std::__cxx11::basic_string"* %ref.tmp33, i8* %arraydecay34, %"struct.std::less"* dereferenceable(1) %ref.tmp35)
          to label %invoke.cont37 unwind label %lpad36, !dbg !1484

invoke.cont37:                                    ; preds = %if.end
  %call40 = invoke dereferenceable(4) i32* @_ZNSt3mapINSt7__cxx1112basic_stringIcSt11char_traitsIcESaIcEEEiSt4lessIS5_ESaISt4pairIKS5_iEEEixERS9_(%"class.std::map"* @nodes, %"class.std::__cxx11::basic_string"* dereferenceable(32) %ref.tmp33)
          to label %invoke.cont39 unwind label %lpad38, !dbg !1485

invoke.cont39:                                    ; preds = %invoke.cont37
  %17 = load i32, i32* %call40, !dbg !1487
  %call42 = invoke dereferenceable(272) %"class.std::basic_ostream"* @_ZNSolsEi(%"class.std::basic_ostream"* %call32, i32 %17)
          to label %invoke.cont41 unwind label %lpad38, !dbg !1489

invoke.cont41:                                    ; preds = %invoke.cont39
  invoke void @_ZNSt7__cxx1112basic_stringIcSt11char_traitsIcESaIcEED1Ev(%"class.std::__cxx11::basic_string"* %ref.tmp33)
          to label %invoke.cont43 unwind label %lpad36, !dbg !1490

invoke.cont43:                                    ; preds = %invoke.cont41
  call void @_ZNSaIcED1Ev(%"struct.std::less"* %ref.tmp35) #5, !dbg !1492
  ret void, !dbg !1494

lpad36:                                           ; preds = %invoke.cont41, %if.end
  %18 = landingpad { i8*, i32 } personality i8* bitcast (i32 (...)* @__gxx_personality_v0 to i8*)
          cleanup, !dbg !1494
  %19 = extractvalue { i8*, i32 } %18, 0, !dbg !1494
  store i8* %19, i8** %exn.slot, !dbg !1494
  %20 = extractvalue { i8*, i32 } %18, 1, !dbg !1494
  store i32 %20, i32* %ehselector.slot, !dbg !1494
  br label %ehcleanup46, !dbg !1494

lpad38:                                           ; preds = %invoke.cont39, %invoke.cont37
  %21 = landingpad { i8*, i32 } personality i8* bitcast (i32 (...)* @__gxx_personality_v0 to i8*)
          cleanup, !dbg !1494
  %22 = extractvalue { i8*, i32 } %21, 0, !dbg !1494
  store i8* %22, i8** %exn.slot, !dbg !1494
  %23 = extractvalue { i8*, i32 } %21, 1, !dbg !1494
  store i32 %23, i32* %ehselector.slot, !dbg !1494
  invoke void @_ZNSt7__cxx1112basic_stringIcSt11char_traitsIcESaIcEED1Ev(%"class.std::__cxx11::basic_string"* %ref.tmp33)
          to label %invoke.cont45 unwind label %terminate.lpad, !dbg !1495

invoke.cont45:                                    ; preds = %lpad38
  br label %ehcleanup46, !dbg !1496

ehcleanup46:                                      ; preds = %invoke.cont45, %lpad36
  call void @_ZNSaIcED1Ev(%"struct.std::less"* %ref.tmp35) #5, !dbg !1498
  br label %eh.resume, !dbg !1498

eh.resume:                                        ; preds = %ehcleanup46, %ehcleanup25, %ehcleanup
  %exn = load i8*, i8** %exn.slot, !dbg !1500
  %sel = load i32, i32* %ehselector.slot, !dbg !1500
  %lpad.val = insertvalue { i8*, i32 } undef, i8* %exn, 0, !dbg !1500
  %lpad.val47 = insertvalue { i8*, i32 } %lpad.val, i32 %sel, 1, !dbg !1500
  resume { i8*, i32 } %lpad.val47, !dbg !1500

terminate.lpad:                                   ; preds = %lpad38, %lpad19, %lpad3
  %24 = landingpad { i8*, i32 } personality i8* bitcast (i32 (...)* @__gxx_personality_v0 to i8*)
          catch i8* null, !dbg !1502
  %25 = extractvalue { i8*, i32 } %24, 0, !dbg !1502
  call void @__clang_call_terminate(i8* %25) #14, !dbg !1502
  unreachable, !dbg !1502
}

; Function Attrs: nounwind
declare i32 @sprintf(i8*, i8*, ...) #6

; Function Attrs: nounwind
declare void @_ZNSaIcEC1Ev(%"struct.std::less"*) #6

declare void @_ZNSt7__cxx1112basic_stringIcSt11char_traitsIcESaIcEEC1EPKcRKS3_(%"class.std::__cxx11::basic_string"*, i8*, %"struct.std::less"* dereferenceable(1)) #4

declare i32 @__gxx_personality_v0(...)

declare void @_ZNSt7__cxx1112basic_stringIcSt11char_traitsIcESaIcEED1Ev(%"class.std::__cxx11::basic_string"*) #4

declare i8* @__cxa_begin_catch(i8*)

declare void @_ZSt9terminatev()

; Function Attrs: nounwind
declare void @_ZNSaIcED1Ev(%"struct.std::less"*) #6

declare dereferenceable(272) %"class.std::basic_ostream"* @_ZStlsISt11char_traitsIcEERSt13basic_ostreamIcT_ES5_PKc(%"class.std::basic_ostream"* dereferenceable(272), i8*) #4

declare dereferenceable(272) %"class.std::basic_ostream"* @_ZNSolsEi(%"class.std::basic_ostream"*, i32) #4

; Function Attrs: uwtable
define void @_Z12printLnTracePci(i8* %filename, i32 %line) #2 {
entry:
  %filename.addr = alloca i8*, align 8
  %line.addr = alloca i32, align 4
  %key = alloca [128 x i8], align 16
  %ref.tmp = alloca %"class.std::__cxx11::basic_string", align 8
  %ref.tmp2 = alloca %"struct.std::less", align 1
  %exn.slot = alloca i8*
  %ehselector.slot = alloca i32
  %coerce = alloca %"struct.std::_Rb_tree_iterator", align 8
  %ref.tmp6 = alloca %"struct.std::_Rb_tree_iterator", align 8
  %ref.tmp14 = alloca %"class.std::__cxx11::basic_string", align 8
  %ref.tmp16 = alloca %"struct.std::less", align 1
  %ref.tmp33 = alloca %"class.std::__cxx11::basic_string", align 8
  %ref.tmp35 = alloca %"struct.std::less", align 1
  store i8* %filename, i8** %filename.addr, align 8
  call void @llvm.dbg.declare(metadata i8** %filename.addr, metadata !1504, metadata !1377), !dbg !1505
  store i32 %line, i32* %line.addr, align 4
  call void @llvm.dbg.declare(metadata i32* %line.addr, metadata !1506, metadata !1377), !dbg !1507
  call void @llvm.dbg.declare(metadata [128 x i8]* %key, metadata !1508, metadata !1377), !dbg !1509
  %arraydecay = getelementptr inbounds [128 x i8], [128 x i8]* %key, i32 0, i32 0, !dbg !1510
  %0 = load i8*, i8** %filename.addr, align 8, !dbg !1511
  %1 = load i32, i32* %line.addr, align 4, !dbg !1512
  %call = call i32 (i8*, i8*, ...) @sprintf(i8* %arraydecay, i8* getelementptr inbounds ([6 x i8], [6 x i8]* @.str6, i32 0, i32 0), i8* %0, i32 %1) #5, !dbg !1513
  %arraydecay1 = getelementptr inbounds [128 x i8], [128 x i8]* %key, i32 0, i32 0, !dbg !1514
  call void @_ZNSaIcEC1Ev(%"struct.std::less"* %ref.tmp2) #5, !dbg !1516
  invoke void @_ZNSt7__cxx1112basic_stringIcSt11char_traitsIcESaIcEEC1EPKcRKS3_(%"class.std::__cxx11::basic_string"* %ref.tmp, i8* %arraydecay1, %"struct.std::less"* dereferenceable(1) %ref.tmp2)
          to label %invoke.cont unwind label %lpad, !dbg !1516

invoke.cont:                                      ; preds = %entry
  %call5 = invoke %"struct.std::_Rb_tree_node_base"* @_ZNSt3mapINSt7__cxx1112basic_stringIcSt11char_traitsIcESaIcEEEiSt4lessIS5_ESaISt4pairIKS5_iEEE4findERS9_(%"class.std::map"* @nodes, %"class.std::__cxx11::basic_string"* dereferenceable(32) %ref.tmp)
          to label %invoke.cont4 unwind label %lpad3, !dbg !1517

invoke.cont4:                                     ; preds = %invoke.cont
  %coerce.dive = getelementptr %"struct.std::_Rb_tree_iterator", %"struct.std::_Rb_tree_iterator"* %coerce, i32 0, i32 0, !dbg !1519
  store %"struct.std::_Rb_tree_node_base"* %call5, %"struct.std::_Rb_tree_node_base"** %coerce.dive, !dbg !1519
  %call8 = invoke %"struct.std::_Rb_tree_node_base"* @_ZNSt3mapINSt7__cxx1112basic_stringIcSt11char_traitsIcESaIcEEEiSt4lessIS5_ESaISt4pairIKS5_iEEE3endEv(%"class.std::map"* @nodes)
          to label %invoke.cont7 unwind label %lpad3, !dbg !1521

invoke.cont7:                                     ; preds = %invoke.cont4
  %coerce.dive9 = getelementptr %"struct.std::_Rb_tree_iterator", %"struct.std::_Rb_tree_iterator"* %ref.tmp6, i32 0, i32 0, !dbg !1522
  store %"struct.std::_Rb_tree_node_base"* %call8, %"struct.std::_Rb_tree_node_base"** %coerce.dive9, !dbg !1522
  %call11 = invoke zeroext i1 @_ZNKSt17_Rb_tree_iteratorISt4pairIKNSt7__cxx1112basic_stringIcSt11char_traitsIcESaIcEEEiEEeqERKS9_(%"struct.std::_Rb_tree_iterator"* %coerce, %"struct.std::_Rb_tree_iterator"* dereferenceable(8) %ref.tmp6)
          to label %invoke.cont10 unwind label %lpad3, !dbg !1524

invoke.cont10:                                    ; preds = %invoke.cont7
  invoke void @_ZNSt7__cxx1112basic_stringIcSt11char_traitsIcESaIcEED1Ev(%"class.std::__cxx11::basic_string"* %ref.tmp)
          to label %invoke.cont12 unwind label %lpad, !dbg !1525

invoke.cont12:                                    ; preds = %invoke.cont10
  call void @_ZNSaIcED1Ev(%"struct.std::less"* %ref.tmp2) #5, !dbg !1527
  br i1 %call11, label %if.then, label %if.end, !dbg !1529

if.then:                                          ; preds = %invoke.cont12
  %2 = load i32, i32* @nodeNumber, align 4, !dbg !1530
  %arraydecay15 = getelementptr inbounds [128 x i8], [128 x i8]* %key, i32 0, i32 0, !dbg !1532
  call void @_ZNSaIcEC1Ev(%"struct.std::less"* %ref.tmp16) #5, !dbg !1533
  invoke void @_ZNSt7__cxx1112basic_stringIcSt11char_traitsIcESaIcEEC1EPKcRKS3_(%"class.std::__cxx11::basic_string"* %ref.tmp14, i8* %arraydecay15, %"struct.std::less"* dereferenceable(1) %ref.tmp16)
          to label %invoke.cont18 unwind label %lpad17, !dbg !1533

invoke.cont18:                                    ; preds = %if.then
  %call21 = invoke dereferenceable(4) i32* @_ZNSt3mapINSt7__cxx1112basic_stringIcSt11char_traitsIcESaIcEEEiSt4lessIS5_ESaISt4pairIKS5_iEEEixERS9_(%"class.std::map"* @nodes, %"class.std::__cxx11::basic_string"* dereferenceable(32) %ref.tmp14)
          to label %invoke.cont20 unwind label %lpad19, !dbg !1534

invoke.cont20:                                    ; preds = %invoke.cont18
  store i32 %2, i32* %call21, !dbg !1536
  invoke void @_ZNSt7__cxx1112basic_stringIcSt11char_traitsIcESaIcEED1Ev(%"class.std::__cxx11::basic_string"* %ref.tmp14)
          to label %invoke.cont22 unwind label %lpad17, !dbg !1538

invoke.cont22:                                    ; preds = %invoke.cont20
  call void @_ZNSaIcED1Ev(%"struct.std::less"* %ref.tmp16) #5, !dbg !1539
  %call26 = call dereferenceable(272) %"class.std::basic_ostream"* @_ZStlsISt11char_traitsIcEERSt13basic_ostreamIcT_ES5_PKc(%"class.std::basic_ostream"* dereferenceable(272) @_ZSt4cerr, i8* getelementptr inbounds ([2 x i8], [2 x i8]* @.str2, i32 0, i32 0)), !dbg !1541
  %3 = load i32, i32* @nodeNumber, align 4, !dbg !1542
  %inc = add nsw i32 %3, 1, !dbg !1542
  store i32 %inc, i32* @nodeNumber, align 4, !dbg !1542
  %call27 = call dereferenceable(272) %"class.std::basic_ostream"* @_ZNSolsEi(%"class.std::basic_ostream"* %call26, i32 %3), !dbg !1543
  %call28 = call dereferenceable(272) %"class.std::basic_ostream"* @_ZStlsISt11char_traitsIcEERSt13basic_ostreamIcT_ES5_PKc(%"class.std::basic_ostream"* dereferenceable(272) %call27, i8* getelementptr inbounds ([5 x i8], [5 x i8]* @.str34, i32 0, i32 0)), !dbg !1544
  %arraydecay29 = getelementptr inbounds [128 x i8], [128 x i8]* %key, i32 0, i32 0, !dbg !1545
  %call30 = call dereferenceable(272) %"class.std::basic_ostream"* @_ZStlsISt11char_traitsIcEERSt13basic_ostreamIcT_ES5_PKc(%"class.std::basic_ostream"* dereferenceable(272) %call28, i8* %arraydecay29), !dbg !1546
  %call31 = call dereferenceable(272) %"class.std::basic_ostream"* @_ZStlsISt11char_traitsIcEERSt13basic_ostreamIcT_ES5_PKc(%"class.std::basic_ostream"* dereferenceable(272) %call30, i8* getelementptr inbounds ([3 x i8], [3 x i8]* @.str4, i32 0, i32 0)), !dbg !1547
  br label %if.end, !dbg !1548

lpad:                                             ; preds = %invoke.cont10, %entry
  %4 = landingpad { i8*, i32 } personality i8* bitcast (i32 (...)* @__gxx_personality_v0 to i8*)
          cleanup, !dbg !1549
  %5 = extractvalue { i8*, i32 } %4, 0, !dbg !1549
  store i8* %5, i8** %exn.slot, !dbg !1549
  %6 = extractvalue { i8*, i32 } %4, 1, !dbg !1549
  store i32 %6, i32* %ehselector.slot, !dbg !1549
  br label %ehcleanup, !dbg !1549

lpad3:                                            ; preds = %invoke.cont7, %invoke.cont4, %invoke.cont
  %7 = landingpad { i8*, i32 } personality i8* bitcast (i32 (...)* @__gxx_personality_v0 to i8*)
          cleanup, !dbg !1549
  %8 = extractvalue { i8*, i32 } %7, 0, !dbg !1549
  store i8* %8, i8** %exn.slot, !dbg !1549
  %9 = extractvalue { i8*, i32 } %7, 1, !dbg !1549
  store i32 %9, i32* %ehselector.slot, !dbg !1549
  invoke void @_ZNSt7__cxx1112basic_stringIcSt11char_traitsIcESaIcEED1Ev(%"class.std::__cxx11::basic_string"* %ref.tmp)
          to label %invoke.cont13 unwind label %terminate.lpad, !dbg !1550

invoke.cont13:                                    ; preds = %lpad3
  br label %ehcleanup, !dbg !1551

ehcleanup:                                        ; preds = %invoke.cont13, %lpad
  call void @_ZNSaIcED1Ev(%"struct.std::less"* %ref.tmp2) #5, !dbg !1553
  br label %eh.resume, !dbg !1553

lpad17:                                           ; preds = %invoke.cont20, %if.then
  %10 = landingpad { i8*, i32 } personality i8* bitcast (i32 (...)* @__gxx_personality_v0 to i8*)
          cleanup, !dbg !1555
  %11 = extractvalue { i8*, i32 } %10, 0, !dbg !1555
  store i8* %11, i8** %exn.slot, !dbg !1555
  %12 = extractvalue { i8*, i32 } %10, 1, !dbg !1555
  store i32 %12, i32* %ehselector.slot, !dbg !1555
  br label %ehcleanup25, !dbg !1555

lpad19:                                           ; preds = %invoke.cont18
  %13 = landingpad { i8*, i32 } personality i8* bitcast (i32 (...)* @__gxx_personality_v0 to i8*)
          cleanup, !dbg !1555
  %14 = extractvalue { i8*, i32 } %13, 0, !dbg !1555
  store i8* %14, i8** %exn.slot, !dbg !1555
  %15 = extractvalue { i8*, i32 } %13, 1, !dbg !1555
  store i32 %15, i32* %ehselector.slot, !dbg !1555
  invoke void @_ZNSt7__cxx1112basic_stringIcSt11char_traitsIcESaIcEED1Ev(%"class.std::__cxx11::basic_string"* %ref.tmp14)
          to label %invoke.cont24 unwind label %terminate.lpad, !dbg !1538

invoke.cont24:                                    ; preds = %lpad19
  br label %ehcleanup25, !dbg !1556

ehcleanup25:                                      ; preds = %invoke.cont24, %lpad17
  call void @_ZNSaIcED1Ev(%"struct.std::less"* %ref.tmp16) #5, !dbg !1558
  br label %eh.resume, !dbg !1558

if.end:                                           ; preds = %invoke.cont22, %invoke.cont12
  %call32 = call dereferenceable(272) %"class.std::basic_ostream"* @_ZStlsISt11char_traitsIcEERSt13basic_ostreamIcT_ES5_PKc(%"class.std::basic_ostream"* dereferenceable(272) @_ZSt4cerr, i8* getelementptr inbounds ([2 x i8], [2 x i8]* @.str5, i32 0, i32 0)), !dbg !1560
  %arraydecay34 = getelementptr inbounds [128 x i8], [128 x i8]* %key, i32 0, i32 0, !dbg !1561
  call void @_ZNSaIcEC1Ev(%"struct.std::less"* %ref.tmp35) #5, !dbg !1562
  invoke void @_ZNSt7__cxx1112basic_stringIcSt11char_traitsIcESaIcEEC1EPKcRKS3_(%"class.std::__cxx11::basic_string"* %ref.tmp33, i8* %arraydecay34, %"struct.std::less"* dereferenceable(1) %ref.tmp35)
          to label %invoke.cont37 unwind label %lpad36, !dbg !1562

invoke.cont37:                                    ; preds = %if.end
  %call40 = invoke dereferenceable(4) i32* @_ZNSt3mapINSt7__cxx1112basic_stringIcSt11char_traitsIcESaIcEEEiSt4lessIS5_ESaISt4pairIKS5_iEEEixERS9_(%"class.std::map"* @nodes, %"class.std::__cxx11::basic_string"* dereferenceable(32) %ref.tmp33)
          to label %invoke.cont39 unwind label %lpad38, !dbg !1563

invoke.cont39:                                    ; preds = %invoke.cont37
  %16 = load i32, i32* %call40, !dbg !1565
  %call42 = invoke dereferenceable(272) %"class.std::basic_ostream"* @_ZNSolsEi(%"class.std::basic_ostream"* %call32, i32 %16)
          to label %invoke.cont41 unwind label %lpad38, !dbg !1567

invoke.cont41:                                    ; preds = %invoke.cont39
  invoke void @_ZNSt7__cxx1112basic_stringIcSt11char_traitsIcESaIcEED1Ev(%"class.std::__cxx11::basic_string"* %ref.tmp33)
          to label %invoke.cont43 unwind label %lpad36, !dbg !1568

invoke.cont43:                                    ; preds = %invoke.cont41
  call void @_ZNSaIcED1Ev(%"struct.std::less"* %ref.tmp35) #5, !dbg !1570
  ret void, !dbg !1572

lpad36:                                           ; preds = %invoke.cont41, %if.end
  %17 = landingpad { i8*, i32 } personality i8* bitcast (i32 (...)* @__gxx_personality_v0 to i8*)
          cleanup, !dbg !1572
  %18 = extractvalue { i8*, i32 } %17, 0, !dbg !1572
  store i8* %18, i8** %exn.slot, !dbg !1572
  %19 = extractvalue { i8*, i32 } %17, 1, !dbg !1572
  store i32 %19, i32* %ehselector.slot, !dbg !1572
  br label %ehcleanup46, !dbg !1572

lpad38:                                           ; preds = %invoke.cont39, %invoke.cont37
  %20 = landingpad { i8*, i32 } personality i8* bitcast (i32 (...)* @__gxx_personality_v0 to i8*)
          cleanup, !dbg !1572
  %21 = extractvalue { i8*, i32 } %20, 0, !dbg !1572
  store i8* %21, i8** %exn.slot, !dbg !1572
  %22 = extractvalue { i8*, i32 } %20, 1, !dbg !1572
  store i32 %22, i32* %ehselector.slot, !dbg !1572
  invoke void @_ZNSt7__cxx1112basic_stringIcSt11char_traitsIcESaIcEED1Ev(%"class.std::__cxx11::basic_string"* %ref.tmp33)
          to label %invoke.cont45 unwind label %terminate.lpad, !dbg !1573

invoke.cont45:                                    ; preds = %lpad38
  br label %ehcleanup46, !dbg !1574

ehcleanup46:                                      ; preds = %invoke.cont45, %lpad36
  call void @_ZNSaIcED1Ev(%"struct.std::less"* %ref.tmp35) #5, !dbg !1576
  br label %eh.resume, !dbg !1576

eh.resume:                                        ; preds = %ehcleanup46, %ehcleanup25, %ehcleanup
  %exn = load i8*, i8** %exn.slot, !dbg !1578
  %sel = load i32, i32* %ehselector.slot, !dbg !1578
  %lpad.val = insertvalue { i8*, i32 } undef, i8* %exn, 0, !dbg !1578
  %lpad.val47 = insertvalue { i8*, i32 } %lpad.val, i32 %sel, 1, !dbg !1578
  resume { i8*, i32 } %lpad.val47, !dbg !1578

terminate.lpad:                                   ; preds = %lpad38, %lpad19, %lpad3
  %23 = landingpad { i8*, i32 } personality i8* bitcast (i32 (...)* @__gxx_personality_v0 to i8*)
          catch i8* null, !dbg !1580
  %24 = extractvalue { i8*, i32 } %23, 0, !dbg !1580
  call void @__clang_call_terminate(i8* %24) #14, !dbg !1580
  unreachable, !dbg !1580
}

; Function Attrs: uwtable
define void @_Z10printTracei(i32 %node) #2 {
entry:
  %node.addr = alloca i32, align 4
  store i32 %node, i32* %node.addr, align 4
  call void @llvm.dbg.declare(metadata i32* %node.addr, metadata !1582, metadata !1377), !dbg !1583
  %call = call dereferenceable(272) %"class.std::basic_ostream"* @_ZStlsISt11char_traitsIcEERSt13basic_ostreamIcT_ES5_PKc(%"class.std::basic_ostream"* dereferenceable(272) @_ZSt4cerr, i8* getelementptr inbounds ([2 x i8], [2 x i8]* @.str5, i32 0, i32 0)), !dbg !1584
  %0 = load i32, i32* %node.addr, align 4, !dbg !1585
  %call1 = call dereferenceable(272) %"class.std::basic_ostream"* @_ZNSolsEi(%"class.std::basic_ostream"* %call, i32 %0), !dbg !1586
  ret void, !dbg !1587
}

; Function Attrs: uwtable
define void @_Z12printBBEntryiPc(i32 %ln, i8* %filename) #2 {
entry:
  %ln.addr = alloca i32, align 4
  %filename.addr = alloca i8*, align 8
  %i = alloca i32, align 4
  %ref.tmp = alloca %"class.std::__cxx11::basic_string", align 8
  %ref.tmp2 = alloca %"struct.std::less", align 1
  %exn.slot = alloca i8*
  %ehselector.slot = alloca i32
  store i32 %ln, i32* %ln.addr, align 4
  call void @llvm.dbg.declare(metadata i32* %ln.addr, metadata !1588, metadata !1377), !dbg !1589
  store i8* %filename, i8** %filename.addr, align 8
  call void @llvm.dbg.declare(metadata i8** %filename.addr, metadata !1590, metadata !1377), !dbg !1591
  call void @llvm.dbg.declare(metadata i32* %i, metadata !1592, metadata !1377), !dbg !1594
  store i32 0, i32* %i, align 4, !dbg !1594
  br label %for.cond, !dbg !1595

for.cond:                                         ; preds = %for.inc, %entry
  %0 = load i32, i32* %i, align 4, !dbg !1596
  %1 = load i32, i32* @level, align 4, !dbg !1600
  %cmp = icmp slt i32 %0, %1, !dbg !1601
  br i1 %cmp, label %for.body, label %for.end, !dbg !1602

for.body:                                         ; preds = %for.cond
  %call = call dereferenceable(272) %"class.std::basic_ostream"* @_ZStlsISt11char_traitsIcEERSt13basic_ostreamIcT_ES5_PKc(%"class.std::basic_ostream"* dereferenceable(272) @_ZSt4cerr, i8* getelementptr inbounds ([4 x i8], [4 x i8]* @.str7, i32 0, i32 0)), !dbg !1603
  br label %for.inc, !dbg !1604

for.inc:                                          ; preds = %for.body
  %2 = load i32, i32* %i, align 4, !dbg !1605
  %inc = add nsw i32 %2, 1, !dbg !1605
  store i32 %inc, i32* %i, align 4, !dbg !1605
  br label %for.cond, !dbg !1606

for.end:                                          ; preds = %for.cond
  %call1 = call dereferenceable(272) %"class.std::basic_ostream"* @_ZStlsISt11char_traitsIcEERSt13basic_ostreamIcT_ES5_PKc(%"class.std::basic_ostream"* dereferenceable(272) @_ZSt4cerr, i8* getelementptr inbounds ([26 x i8], [26 x i8]* @.str8, i32 0, i32 0)), !dbg !1607
  %3 = load i8*, i8** %filename.addr, align 8, !dbg !1608
  call void @_ZNSaIcEC1Ev(%"struct.std::less"* %ref.tmp2) #5, !dbg !1609
  invoke void @_ZNSt7__cxx1112basic_stringIcSt11char_traitsIcESaIcEEC1EPKcRKS3_(%"class.std::__cxx11::basic_string"* %ref.tmp, i8* %3, %"struct.std::less"* dereferenceable(1) %ref.tmp2)
          to label %invoke.cont unwind label %lpad, !dbg !1609

invoke.cont:                                      ; preds = %for.end
  %call5 = invoke dereferenceable(272) %"class.std::basic_ostream"* @_ZStlsIcSt11char_traitsIcESaIcEERSt13basic_ostreamIT_T0_ES7_RKNSt7__cxx1112basic_stringIS4_S5_T1_EE(%"class.std::basic_ostream"* dereferenceable(272) %call1, %"class.std::__cxx11::basic_string"* dereferenceable(32) %ref.tmp)
          to label %invoke.cont4 unwind label %lpad3, !dbg !1610

invoke.cont4:                                     ; preds = %invoke.cont
  %call7 = invoke dereferenceable(272) %"class.std::basic_ostream"* @_ZStlsISt11char_traitsIcEERSt13basic_ostreamIcT_ES5_PKc(%"class.std::basic_ostream"* dereferenceable(272) %call5, i8* getelementptr inbounds ([12 x i8], [12 x i8]* @.str9, i32 0, i32 0))
          to label %invoke.cont6 unwind label %lpad3, !dbg !1612

invoke.cont6:                                     ; preds = %invoke.cont4
  %4 = load i32, i32* %ln.addr, align 4, !dbg !1614
  %call9 = invoke dereferenceable(272) %"class.std::basic_ostream"* @_ZNSolsEi(%"class.std::basic_ostream"* %call7, i32 %4)
          to label %invoke.cont8 unwind label %lpad3, !dbg !1616

invoke.cont8:                                     ; preds = %invoke.cont6
  %call11 = invoke dereferenceable(272) %"class.std::basic_ostream"* @_ZNSolsEPFRSoS_E(%"class.std::basic_ostream"* %call9, %"class.std::basic_ostream"* (%"class.std::basic_ostream"*)* @_ZSt4endlIcSt11char_traitsIcEERSt13basic_ostreamIT_T0_ES6_)
          to label %invoke.cont10 unwind label %lpad3, !dbg !1617

invoke.cont10:                                    ; preds = %invoke.cont8
  invoke void @_ZNSt7__cxx1112basic_stringIcSt11char_traitsIcESaIcEED1Ev(%"class.std::__cxx11::basic_string"* %ref.tmp)
          to label %invoke.cont12 unwind label %lpad, !dbg !1619

invoke.cont12:                                    ; preds = %invoke.cont10
  call void @_ZNSaIcED1Ev(%"struct.std::less"* %ref.tmp2) #5, !dbg !1621
  %5 = load i32, i32* @level, align 4, !dbg !1623
  %inc14 = add nsw i32 %5, 1, !dbg !1623
  store i32 %inc14, i32* @level, align 4, !dbg !1623
  ret void, !dbg !1624

lpad:                                             ; preds = %invoke.cont10, %for.end
  %6 = landingpad { i8*, i32 } personality i8* bitcast (i32 (...)* @__gxx_personality_v0 to i8*)
          cleanup, !dbg !1624
  %7 = extractvalue { i8*, i32 } %6, 0, !dbg !1624
  store i8* %7, i8** %exn.slot, !dbg !1624
  %8 = extractvalue { i8*, i32 } %6, 1, !dbg !1624
  store i32 %8, i32* %ehselector.slot, !dbg !1624
  br label %ehcleanup, !dbg !1624

lpad3:                                            ; preds = %invoke.cont8, %invoke.cont6, %invoke.cont4, %invoke.cont
  %9 = landingpad { i8*, i32 } personality i8* bitcast (i32 (...)* @__gxx_personality_v0 to i8*)
          cleanup, !dbg !1624
  %10 = extractvalue { i8*, i32 } %9, 0, !dbg !1624
  store i8* %10, i8** %exn.slot, !dbg !1624
  %11 = extractvalue { i8*, i32 } %9, 1, !dbg !1624
  store i32 %11, i32* %ehselector.slot, !dbg !1624
  invoke void @_ZNSt7__cxx1112basic_stringIcSt11char_traitsIcESaIcEED1Ev(%"class.std::__cxx11::basic_string"* %ref.tmp)
          to label %invoke.cont13 unwind label %terminate.lpad, !dbg !1625

invoke.cont13:                                    ; preds = %lpad3
  br label %ehcleanup, !dbg !1626

ehcleanup:                                        ; preds = %invoke.cont13, %lpad
  call void @_ZNSaIcED1Ev(%"struct.std::less"* %ref.tmp2) #5, !dbg !1628
  br label %eh.resume, !dbg !1628

eh.resume:                                        ; preds = %ehcleanup
  %exn = load i8*, i8** %exn.slot, !dbg !1630
  %sel = load i32, i32* %ehselector.slot, !dbg !1630
  %lpad.val = insertvalue { i8*, i32 } undef, i8* %exn, 0, !dbg !1630
  %lpad.val15 = insertvalue { i8*, i32 } %lpad.val, i32 %sel, 1, !dbg !1630
  resume { i8*, i32 } %lpad.val15, !dbg !1630

terminate.lpad:                                   ; preds = %lpad3
  %12 = landingpad { i8*, i32 } personality i8* bitcast (i32 (...)* @__gxx_personality_v0 to i8*)
          catch i8* null, !dbg !1632
  %13 = extractvalue { i8*, i32 } %12, 0, !dbg !1632
  call void @__clang_call_terminate(i8* %13) #14, !dbg !1632
  unreachable, !dbg !1632
}

declare dereferenceable(272) %"class.std::basic_ostream"* @_ZStlsIcSt11char_traitsIcESaIcEERSt13basic_ostreamIT_T0_ES7_RKNSt7__cxx1112basic_stringIS4_S5_T1_EE(%"class.std::basic_ostream"* dereferenceable(272), %"class.std::__cxx11::basic_string"* dereferenceable(32)) #4

declare dereferenceable(272) %"class.std::basic_ostream"* @_ZNSolsEPFRSoS_E(%"class.std::basic_ostream"*, %"class.std::basic_ostream"* (%"class.std::basic_ostream"*)*) #4

declare dereferenceable(272) %"class.std::basic_ostream"* @_ZSt4endlIcSt11char_traitsIcEERSt13basic_ostreamIT_T0_ES6_(%"class.std::basic_ostream"* dereferenceable(272)) #4

; Function Attrs: uwtable
define void @_Z11printBBExitiPc(i32 %ln, i8* %filename) #2 {
entry:
  %ln.addr = alloca i32, align 4
  %filename.addr = alloca i8*, align 8
  %i = alloca i32, align 4
  store i32 %ln, i32* %ln.addr, align 4
  call void @llvm.dbg.declare(metadata i32* %ln.addr, metadata !1634, metadata !1377), !dbg !1635
  store i8* %filename, i8** %filename.addr, align 8
  call void @llvm.dbg.declare(metadata i8** %filename.addr, metadata !1636, metadata !1377), !dbg !1637
  %0 = load i32, i32* @level, align 4, !dbg !1638
  %dec = add nsw i32 %0, -1, !dbg !1638
  store i32 %dec, i32* @level, align 4, !dbg !1638
  call void @llvm.dbg.declare(metadata i32* %i, metadata !1639, metadata !1377), !dbg !1641
  store i32 0, i32* %i, align 4, !dbg !1641
  br label %for.cond, !dbg !1642

for.cond:                                         ; preds = %for.inc, %entry
  %1 = load i32, i32* %i, align 4, !dbg !1643
  %2 = load i32, i32* @level, align 4, !dbg !1647
  %cmp = icmp slt i32 %1, %2, !dbg !1648
  br i1 %cmp, label %for.body, label %for.end, !dbg !1649

for.body:                                         ; preds = %for.cond
  %call = call dereferenceable(272) %"class.std::basic_ostream"* @_ZStlsISt11char_traitsIcEERSt13basic_ostreamIcT_ES5_PKc(%"class.std::basic_ostream"* dereferenceable(272) @_ZSt4cerr, i8* getelementptr inbounds ([4 x i8], [4 x i8]* @.str7, i32 0, i32 0)), !dbg !1650
  br label %for.inc, !dbg !1651

for.inc:                                          ; preds = %for.body
  %3 = load i32, i32* %i, align 4, !dbg !1652
  %inc = add nsw i32 %3, 1, !dbg !1652
  store i32 %inc, i32* %i, align 4, !dbg !1652
  br label %for.cond, !dbg !1653

for.end:                                          ; preds = %for.cond
  %call1 = call dereferenceable(272) %"class.std::basic_ostream"* @_ZStlsISt11char_traitsIcEERSt13basic_ostreamIcT_ES5_PKc(%"class.std::basic_ostream"* dereferenceable(272) @_ZSt4cerr, i8* getelementptr inbounds ([16 x i8], [16 x i8]* @.str10, i32 0, i32 0)), !dbg !1654
  %call2 = call dereferenceable(272) %"class.std::basic_ostream"* @_ZNSolsEPFRSoS_E(%"class.std::basic_ostream"* %call1, %"class.std::basic_ostream"* (%"class.std::basic_ostream"*)* @_ZSt4endlIcSt11char_traitsIcEERSt13basic_ostreamIT_T0_ES6_), !dbg !1655
  ret void, !dbg !1656
}

; Function Attrs: nobuiltin nounwind
declare void @_ZdlPv(i8*) #7

; Function Attrs: nounwind
declare void @llvm.memset.p0i8.i64(i8* nocapture, i8, i64, i32, i1) #5

; Function Attrs: nounwind
declare void @llvm.memcpy.p0i8.p0i8.i64(i8* nocapture, i8* nocapture readonly, i64, i32, i1) #5

declare i32 @_ZNKSt7__cxx1112basic_stringIcSt11char_traitsIcESaIcEE7compareERKS4_(%"class.std::__cxx11::basic_string"*, %"class.std::__cxx11::basic_string"* dereferenceable(32)) #4

; Function Attrs: nounwind readonly
declare %"struct.std::_Rb_tree_node_base"* @_ZSt18_Rb_tree_decrementPSt18_Rb_tree_node_base(%"struct.std::_Rb_tree_node_base"*) #3

; Function Attrs: nounwind readonly
declare %"struct.std::_Rb_tree_node_base"* @_ZSt18_Rb_tree_incrementPSt18_Rb_tree_node_base(%"struct.std::_Rb_tree_node_base"*) #3

; Function Attrs: nounwind
declare void @_ZSt29_Rb_tree_insert_and_rebalancebPSt18_Rb_tree_node_baseS0_RS_(i1 zeroext, %"struct.std::_Rb_tree_node_base"*, %"struct.std::_Rb_tree_node_base"*, %"struct.std::_Rb_tree_node_base"* dereferenceable(32)) #6

; Function Attrs: noreturn
declare void @_ZSt17__throw_bad_allocv() #8

; Function Attrs: nobuiltin
declare noalias i8* @_Znwm(i64) #9

declare void @__cxa_rethrow()

declare void @__cxa_end_catch()

declare void @_ZNSt7__cxx1112basic_stringIcSt11char_traitsIcESaIcEEC1ERKS4_(%"class.std::__cxx11::basic_string"*, %"class.std::__cxx11::basic_string"* dereferenceable(32)) #4

; Function Attrs: uwtable
define linkonce_odr %"struct.std::_Rb_tree_node_base"* @_ZNSt3mapINSt7__cxx1112basic_stringIcSt11char_traitsIcESaIcEEEiSt4lessIS5_ESaISt4pairIKS5_iEEE4findERS9_(%"class.std::map"* %this, %"class.std::__cxx11::basic_string"* dereferenceable(32) %__x) #2 comdat align 2 {
entry:
  %retval = alloca %"struct.std::_Rb_tree_iterator", align 8
  %this.addr = alloca %"class.std::map"*, align 8
  %__x.addr = alloca %"class.std::__cxx11::basic_string"*, align 8
  store %"class.std::map"* %this, %"class.std::map"** %this.addr, align 8
  call void @llvm.dbg.declare(metadata %"class.std::map"** %this.addr, metadata !1657, metadata !1377), !dbg !1659
  store %"class.std::__cxx11::basic_string"* %__x, %"class.std::__cxx11::basic_string"** %__x.addr, align 8
  call void @llvm.dbg.declare(metadata %"class.std::__cxx11::basic_string"** %__x.addr, metadata !1660, metadata !1377), !dbg !1661
  %this1 = load %"class.std::map"*, %"class.std::map"** %this.addr
  %_M_t = getelementptr inbounds %"class.std::map", %"class.std::map"* %this1, i32 0, i32 0, !dbg !1662
  %0 = load %"class.std::__cxx11::basic_string"*, %"class.std::__cxx11::basic_string"** %__x.addr, align 8, !dbg !1663
  %call = call %"struct.std::_Rb_tree_node_base"* @_ZNSt8_Rb_treeINSt7__cxx1112basic_stringIcSt11char_traitsIcESaIcEEESt4pairIKS5_iESt10_Select1stIS8_ESt4lessIS5_ESaIS8_EE4findERS7_(%"class.std::_Rb_tree"* %_M_t, %"class.std::__cxx11::basic_string"* dereferenceable(32) %0), !dbg !1662
  %coerce.dive = getelementptr %"struct.std::_Rb_tree_iterator", %"struct.std::_Rb_tree_iterator"* %retval, i32 0, i32 0, !dbg !1662
  store %"struct.std::_Rb_tree_node_base"* %call, %"struct.std::_Rb_tree_node_base"** %coerce.dive, !dbg !1662
  %coerce.dive2 = getelementptr %"struct.std::_Rb_tree_iterator", %"struct.std::_Rb_tree_iterator"* %retval, i32 0, i32 0, !dbg !1664
  %1 = load %"struct.std::_Rb_tree_node_base"*, %"struct.std::_Rb_tree_node_base"** %coerce.dive2, !dbg !1664
  ret %"struct.std::_Rb_tree_node_base"* %1, !dbg !1664
}

; Function Attrs: uwtable
define linkonce_odr %"struct.std::_Rb_tree_node_base"* @_ZNSt3mapINSt7__cxx1112basic_stringIcSt11char_traitsIcESaIcEEEiSt4lessIS5_ESaISt4pairIKS5_iEEE3endEv(%"class.std::map"* %this) #2 comdat align 2 {
entry:
  %retval = alloca %"struct.std::_Rb_tree_iterator", align 8
  %this.addr = alloca %"class.std::map"*, align 8
  store %"class.std::map"* %this, %"class.std::map"** %this.addr, align 8
  call void @llvm.dbg.declare(metadata %"class.std::map"** %this.addr, metadata !1665, metadata !1377), !dbg !1666
  %this1 = load %"class.std::map"*, %"class.std::map"** %this.addr
  %_M_t = getelementptr inbounds %"class.std::map", %"class.std::map"* %this1, i32 0, i32 0, !dbg !1667
  %call = call %"struct.std::_Rb_tree_node_base"* @_ZNSt8_Rb_treeINSt7__cxx1112basic_stringIcSt11char_traitsIcESaIcEEESt4pairIKS5_iESt10_Select1stIS8_ESt4lessIS5_ESaIS8_EE3endEv(%"class.std::_Rb_tree"* %_M_t), !dbg !1667
  %coerce.dive = getelementptr %"struct.std::_Rb_tree_iterator", %"struct.std::_Rb_tree_iterator"* %retval, i32 0, i32 0, !dbg !1667
  store %"struct.std::_Rb_tree_node_base"* %call, %"struct.std::_Rb_tree_node_base"** %coerce.dive, !dbg !1667
  %coerce.dive2 = getelementptr %"struct.std::_Rb_tree_iterator", %"struct.std::_Rb_tree_iterator"* %retval, i32 0, i32 0, !dbg !1668
  %0 = load %"struct.std::_Rb_tree_node_base"*, %"struct.std::_Rb_tree_node_base"** %coerce.dive2, !dbg !1668
  ret %"struct.std::_Rb_tree_node_base"* %0, !dbg !1668
}

; Function Attrs: nounwind uwtable
define linkonce_odr zeroext i1 @_ZNKSt17_Rb_tree_iteratorISt4pairIKNSt7__cxx1112basic_stringIcSt11char_traitsIcESaIcEEEiEEeqERKS9_(%"struct.std::_Rb_tree_iterator"* %this, %"struct.std::_Rb_tree_iterator"* dereferenceable(8) %__x) #0 comdat align 2 {
entry:
  %this.addr = alloca %"struct.std::_Rb_tree_iterator"*, align 8
  %__x.addr = alloca %"struct.std::_Rb_tree_iterator"*, align 8
  store %"struct.std::_Rb_tree_iterator"* %this, %"struct.std::_Rb_tree_iterator"** %this.addr, align 8
  call void @llvm.dbg.declare(metadata %"struct.std::_Rb_tree_iterator"** %this.addr, metadata !1669, metadata !1377), !dbg !1671
  store %"struct.std::_Rb_tree_iterator"* %__x, %"struct.std::_Rb_tree_iterator"** %__x.addr, align 8
  call void @llvm.dbg.declare(metadata %"struct.std::_Rb_tree_iterator"** %__x.addr, metadata !1672, metadata !1377), !dbg !1673
  %this1 = load %"struct.std::_Rb_tree_iterator"*, %"struct.std::_Rb_tree_iterator"** %this.addr
  %_M_node = getelementptr inbounds %"struct.std::_Rb_tree_iterator", %"struct.std::_Rb_tree_iterator"* %this1, i32 0, i32 0, !dbg !1674
  %0 = load %"struct.std::_Rb_tree_node_base"*, %"struct.std::_Rb_tree_node_base"** %_M_node, align 8, !dbg !1674
  %1 = load %"struct.std::_Rb_tree_iterator"*, %"struct.std::_Rb_tree_iterator"** %__x.addr, align 8, !dbg !1675
  %_M_node2 = getelementptr inbounds %"struct.std::_Rb_tree_iterator", %"struct.std::_Rb_tree_iterator"* %1, i32 0, i32 0, !dbg !1676
  %2 = load %"struct.std::_Rb_tree_node_base"*, %"struct.std::_Rb_tree_node_base"** %_M_node2, align 8, !dbg !1676
  %cmp = icmp eq %"struct.std::_Rb_tree_node_base"* %0, %2, !dbg !1677
  ret i1 %cmp, !dbg !1678
}

; Function Attrs: uwtable
define linkonce_odr dereferenceable(4) i32* @_ZNSt3mapINSt7__cxx1112basic_stringIcSt11char_traitsIcESaIcEEEiSt4lessIS5_ESaISt4pairIKS5_iEEEixERS9_(%"class.std::map"* %this, %"class.std::__cxx11::basic_string"* dereferenceable(32) %__k) #2 comdat align 2 {
entry:
  %this.addr = alloca %"class.std::map"*, align 8
  %__k.addr = alloca %"class.std::__cxx11::basic_string"*, align 8
  %__i = alloca %"struct.std::_Rb_tree_iterator", align 8
  %ref.tmp = alloca %"struct.std::_Rb_tree_iterator", align 8
  %undef.agg.tmp = alloca %"struct.std::less", align 1
  %ref.tmp7 = alloca %"struct.std::_Rb_tree_iterator", align 8
  %agg.tmp = alloca %"struct.std::_Rb_tree_iterator", align 8
  %ref.tmp8 = alloca %"struct.std::pair", align 8
  %ref.tmp9 = alloca i32, align 4
  %exn.slot = alloca i8*
  %ehselector.slot = alloca i32
  store %"class.std::map"* %this, %"class.std::map"** %this.addr, align 8
  call void @llvm.dbg.declare(metadata %"class.std::map"** %this.addr, metadata !1679, metadata !1377), !dbg !1680
  store %"class.std::__cxx11::basic_string"* %__k, %"class.std::__cxx11::basic_string"** %__k.addr, align 8
  call void @llvm.dbg.declare(metadata %"class.std::__cxx11::basic_string"** %__k.addr, metadata !1681, metadata !1377), !dbg !1682
  %this1 = load %"class.std::map"*, %"class.std::map"** %this.addr
  call void @llvm.dbg.declare(metadata %"struct.std::_Rb_tree_iterator"* %__i, metadata !1683, metadata !1377), !dbg !1684
  %0 = load %"class.std::__cxx11::basic_string"*, %"class.std::__cxx11::basic_string"** %__k.addr, align 8, !dbg !1685
  %call = call %"struct.std::_Rb_tree_node_base"* @_ZNSt3mapINSt7__cxx1112basic_stringIcSt11char_traitsIcESaIcEEEiSt4lessIS5_ESaISt4pairIKS5_iEEE11lower_boundERS9_(%"class.std::map"* %this1, %"class.std::__cxx11::basic_string"* dereferenceable(32) %0), !dbg !1686
  %coerce.dive = getelementptr %"struct.std::_Rb_tree_iterator", %"struct.std::_Rb_tree_iterator"* %__i, i32 0, i32 0, !dbg !1686
  store %"struct.std::_Rb_tree_node_base"* %call, %"struct.std::_Rb_tree_node_base"** %coerce.dive, !dbg !1686
  %call2 = call %"struct.std::_Rb_tree_node_base"* @_ZNSt3mapINSt7__cxx1112basic_stringIcSt11char_traitsIcESaIcEEEiSt4lessIS5_ESaISt4pairIKS5_iEEE3endEv(%"class.std::map"* %this1), !dbg !1687
  %coerce.dive3 = getelementptr %"struct.std::_Rb_tree_iterator", %"struct.std::_Rb_tree_iterator"* %ref.tmp, i32 0, i32 0, !dbg !1687
  store %"struct.std::_Rb_tree_node_base"* %call2, %"struct.std::_Rb_tree_node_base"** %coerce.dive3, !dbg !1687
  %call4 = call zeroext i1 @_ZNKSt17_Rb_tree_iteratorISt4pairIKNSt7__cxx1112basic_stringIcSt11char_traitsIcESaIcEEEiEEeqERKS9_(%"struct.std::_Rb_tree_iterator"* %__i, %"struct.std::_Rb_tree_iterator"* dereferenceable(8) %ref.tmp), !dbg !1689
  br i1 %call4, label %if.then, label %lor.lhs.false, !dbg !1690

lor.lhs.false:                                    ; preds = %entry
  call void @_ZNKSt3mapINSt7__cxx1112basic_stringIcSt11char_traitsIcESaIcEEEiSt4lessIS5_ESaISt4pairIKS5_iEEE8key_compEv(%"class.std::map"* %this1), !dbg !1691
  %1 = load %"class.std::__cxx11::basic_string"*, %"class.std::__cxx11::basic_string"** %__k.addr, align 8, !dbg !1693
  %call5 = call dereferenceable(40) %"struct.std::pair"* @_ZNKSt17_Rb_tree_iteratorISt4pairIKNSt7__cxx1112basic_stringIcSt11char_traitsIcESaIcEEEiEEdeEv(%"struct.std::_Rb_tree_iterator"* %__i), !dbg !1694
  %first = getelementptr inbounds %"struct.std::pair", %"struct.std::pair"* %call5, i32 0, i32 0, !dbg !1695
  %call6 = call zeroext i1 @_ZNKSt4lessINSt7__cxx1112basic_stringIcSt11char_traitsIcESaIcEEEEclERKS5_S8_(%"struct.std::less"* %undef.agg.tmp, %"class.std::__cxx11::basic_string"* dereferenceable(32) %1, %"class.std::__cxx11::basic_string"* dereferenceable(32) %first), !dbg !1696
  br i1 %call6, label %if.then, label %if.end, !dbg !1697

if.then:                                          ; preds = %lor.lhs.false, %entry
  %2 = bitcast %"struct.std::_Rb_tree_iterator"* %agg.tmp to i8*, !dbg !1698
  %3 = bitcast %"struct.std::_Rb_tree_iterator"* %__i to i8*, !dbg !1698
  call void @llvm.memcpy.p0i8.p0i8.i64(i8* %2, i8* %3, i64 8, i32 8, i1 false), !dbg !1698
  %4 = load %"class.std::__cxx11::basic_string"*, %"class.std::__cxx11::basic_string"** %__k.addr, align 8, !dbg !1699
  store i32 0, i32* %ref.tmp9, !dbg !1700
  call void @_ZNSt4pairIKNSt7__cxx1112basic_stringIcSt11char_traitsIcESaIcEEEiEC2ERS6_RKi(%"struct.std::pair"* %ref.tmp8, %"class.std::__cxx11::basic_string"* dereferenceable(32) %4, i32* dereferenceable(4) %ref.tmp9), !dbg !1701
  %coerce.dive10 = getelementptr %"struct.std::_Rb_tree_iterator", %"struct.std::_Rb_tree_iterator"* %agg.tmp, i32 0, i32 0, !dbg !1702
  %5 = load %"struct.std::_Rb_tree_node_base"*, %"struct.std::_Rb_tree_node_base"** %coerce.dive10, !dbg !1702
  %call11 = invoke %"struct.std::_Rb_tree_node_base"* @_ZNSt3mapINSt7__cxx1112basic_stringIcSt11char_traitsIcESaIcEEEiSt4lessIS5_ESaISt4pairIKS5_iEEE6insertESt17_Rb_tree_iteratorISA_ERKSA_(%"class.std::map"* %this1, %"struct.std::_Rb_tree_node_base"* %5, %"struct.std::pair"* dereferenceable(40) %ref.tmp8)
          to label %invoke.cont unwind label %lpad, !dbg !1702

invoke.cont:                                      ; preds = %if.then
  %coerce.dive12 = getelementptr %"struct.std::_Rb_tree_iterator", %"struct.std::_Rb_tree_iterator"* %ref.tmp7, i32 0, i32 0, !dbg !1703
  store %"struct.std::_Rb_tree_node_base"* %call11, %"struct.std::_Rb_tree_node_base"** %coerce.dive12, !dbg !1703
  %6 = bitcast %"struct.std::_Rb_tree_iterator"* %__i to i8*, !dbg !1704
  %7 = bitcast %"struct.std::_Rb_tree_iterator"* %ref.tmp7 to i8*, !dbg !1704
  call void @llvm.memcpy.p0i8.p0i8.i64(i8* %6, i8* %7, i64 8, i32 8, i1 false), !dbg !1704
  call void @_ZNSt4pairIKNSt7__cxx1112basic_stringIcSt11char_traitsIcESaIcEEEiED2Ev(%"struct.std::pair"* %ref.tmp8), !dbg !1705
  br label %if.end, !dbg !1705

lpad:                                             ; preds = %if.then
  %8 = landingpad { i8*, i32 } personality i8* bitcast (i32 (...)* @__gxx_personality_v0 to i8*)
          cleanup, !dbg !1706
  %9 = extractvalue { i8*, i32 } %8, 0, !dbg !1706
  store i8* %9, i8** %exn.slot, !dbg !1706
  %10 = extractvalue { i8*, i32 } %8, 1, !dbg !1706
  store i32 %10, i32* %ehselector.slot, !dbg !1706
  invoke void @_ZNSt4pairIKNSt7__cxx1112basic_stringIcSt11char_traitsIcESaIcEEEiED2Ev(%"struct.std::pair"* %ref.tmp8)
          to label %invoke.cont13 unwind label %terminate.lpad, !dbg !1705

invoke.cont13:                                    ; preds = %lpad
  br label %eh.resume, !dbg !1707

if.end:                                           ; preds = %invoke.cont, %lor.lhs.false
  %call14 = call dereferenceable(40) %"struct.std::pair"* @_ZNKSt17_Rb_tree_iteratorISt4pairIKNSt7__cxx1112basic_stringIcSt11char_traitsIcESaIcEEEiEEdeEv(%"struct.std::_Rb_tree_iterator"* %__i), !dbg !1709
  %second = getelementptr inbounds %"struct.std::pair", %"struct.std::pair"* %call14, i32 0, i32 1, !dbg !1710
  ret i32* %second, !dbg !1711

eh.resume:                                        ; preds = %invoke.cont13
  %exn = load i8*, i8** %exn.slot, !dbg !1712
  %sel = load i32, i32* %ehselector.slot, !dbg !1712
  %lpad.val = insertvalue { i8*, i32 } undef, i8* %exn, 0, !dbg !1712
  %lpad.val15 = insertvalue { i8*, i32 } %lpad.val, i32 %sel, 1, !dbg !1712
  resume { i8*, i32 } %lpad.val15, !dbg !1712

terminate.lpad:                                   ; preds = %lpad
  %11 = landingpad { i8*, i32 } personality i8* bitcast (i32 (...)* @__gxx_personality_v0 to i8*)
          catch i8* null, !dbg !1714
  %12 = extractvalue { i8*, i32 } %11, 0, !dbg !1714
  call void @__clang_call_terminate(i8* %12) #14, !dbg !1714
  unreachable, !dbg !1714
}

; Function Attrs: noinline noreturn nounwind
define linkonce_odr hidden void @__clang_call_terminate(i8*) #10 comdat {
  %2 = call i8* @__cxa_begin_catch(i8* %0) #5
  call void @_ZSt9terminatev() #14
  unreachable
}

define internal void @__cxx_global_var_init() section ".text.startup" {
entry:
  call void @_ZNSt8ios_base4InitC1Ev(%"struct.std::less"* @_ZStL8__ioinit), !dbg !1716
  %0 = call i32 @__cxa_atexit(void (i8*)* bitcast (void (%"struct.std::less"*)* @_ZNSt8ios_base4InitD1Ev to void (i8*)*), i8* getelementptr inbounds (%"struct.std::less", %"struct.std::less"* @_ZStL8__ioinit, i32 0, i32 0), i8* @__dso_handle) #5, !dbg !1716
  ret void, !dbg !1716
}

define internal void @__cxx_global_var_init1() section ".text.startup" {
entry:
  call void @_ZNSt3mapINSt7__cxx1112basic_stringIcSt11char_traitsIcESaIcEEEiSt4lessIS5_ESaISt4pairIKS5_iEEEC2Ev(%"class.std::map"* @nodes), !dbg !1717
  %0 = call i32 @__cxa_atexit(void (i8*)* bitcast (void (%"class.std::map"*)* @_ZNSt3mapINSt7__cxx1112basic_stringIcSt11char_traitsIcESaIcEEEiSt4lessIS5_ESaISt4pairIKS5_iEEED2Ev to void (i8*)*), i8* getelementptr inbounds (%"class.std::map", %"class.std::map"* @nodes, i32 0, i32 0, i32 0, i32 0, i32 0), i8* @__dso_handle) #5, !dbg !1717
  ret void, !dbg !1717
}

; Function Attrs: inlinehint uwtable
define linkonce_odr void @_ZNSt3mapINSt7__cxx1112basic_stringIcSt11char_traitsIcESaIcEEEiSt4lessIS5_ESaISt4pairIKS5_iEEED2Ev(%"class.std::map"* %this) unnamed_addr #11 comdat align 2 {
entry:
  %this.addr = alloca %"class.std::map"*, align 8
  store %"class.std::map"* %this, %"class.std::map"** %this.addr, align 8
  call void @llvm.dbg.declare(metadata %"class.std::map"** %this.addr, metadata !1718, metadata !1377), !dbg !1719
  %this1 = load %"class.std::map"*, %"class.std::map"** %this.addr
  %_M_t = getelementptr inbounds %"class.std::map", %"class.std::map"* %this1, i32 0, i32 0, !dbg !1720
  call void @_ZNSt8_Rb_treeINSt7__cxx1112basic_stringIcSt11char_traitsIcESaIcEEESt4pairIKS5_iESt10_Select1stIS8_ESt4lessIS5_ESaIS8_EED2Ev(%"class.std::_Rb_tree"* %_M_t), !dbg !1720
  ret void, !dbg !1722
}

; Function Attrs: uwtable
define linkonce_odr void @_ZNSt8_Rb_treeINSt7__cxx1112basic_stringIcSt11char_traitsIcESaIcEEESt4pairIKS5_iESt10_Select1stIS8_ESt4lessIS5_ESaIS8_EED2Ev(%"class.std::_Rb_tree"* %this) unnamed_addr #2 comdat align 2 {
entry:
  %this.addr = alloca %"class.std::_Rb_tree"*, align 8
  %exn.slot = alloca i8*
  %ehselector.slot = alloca i32
  store %"class.std::_Rb_tree"* %this, %"class.std::_Rb_tree"** %this.addr, align 8
  call void @llvm.dbg.declare(metadata %"class.std::_Rb_tree"** %this.addr, metadata !1723, metadata !1377), !dbg !1725
  %this1 = load %"class.std::_Rb_tree"*, %"class.std::_Rb_tree"** %this.addr
  %call = invoke %"struct.std::_Rb_tree_node"* @_ZNSt8_Rb_treeINSt7__cxx1112basic_stringIcSt11char_traitsIcESaIcEEESt4pairIKS5_iESt10_Select1stIS8_ESt4lessIS5_ESaIS8_EE8_M_beginEv(%"class.std::_Rb_tree"* %this1)
          to label %invoke.cont unwind label %lpad, !dbg !1726

invoke.cont:                                      ; preds = %entry
  invoke void @_ZNSt8_Rb_treeINSt7__cxx1112basic_stringIcSt11char_traitsIcESaIcEEESt4pairIKS5_iESt10_Select1stIS8_ESt4lessIS5_ESaIS8_EE8_M_eraseEPSt13_Rb_tree_nodeIS8_E(%"class.std::_Rb_tree"* %this1, %"struct.std::_Rb_tree_node"* %call)
          to label %invoke.cont2 unwind label %lpad, !dbg !1728

invoke.cont2:                                     ; preds = %invoke.cont
  %_M_impl = getelementptr inbounds %"class.std::_Rb_tree", %"class.std::_Rb_tree"* %this1, i32 0, i32 0, !dbg !1730
  call void @_ZNSt8_Rb_treeINSt7__cxx1112basic_stringIcSt11char_traitsIcESaIcEEESt4pairIKS5_iESt10_Select1stIS8_ESt4lessIS5_ESaIS8_EE13_Rb_tree_implISC_Lb0EED2Ev(%"struct.std::_Rb_tree<std::__cxx11::basic_string<char>, std::pair<const std::__cxx11::basic_string<char>, int>, std::_Select1st<std::pair<const std::__cxx11::basic_string<char>, int> >, std::less<std::__cxx11::basic_string<char> >, std::allocator<std::pair<const std::__cxx11::basic_string<char>, int> > >::_Rb_tree_impl"* %_M_impl) #5, !dbg !1730
  ret void, !dbg !1732

lpad:                                             ; preds = %invoke.cont, %entry
  %0 = landingpad { i8*, i32 } personality i8* bitcast (i32 (...)* @__gxx_personality_v0 to i8*)
          cleanup, !dbg !1733
  %1 = extractvalue { i8*, i32 } %0, 0, !dbg !1733
  store i8* %1, i8** %exn.slot, !dbg !1733
  %2 = extractvalue { i8*, i32 } %0, 1, !dbg !1733
  store i32 %2, i32* %ehselector.slot, !dbg !1733
  %_M_impl3 = getelementptr inbounds %"class.std::_Rb_tree", %"class.std::_Rb_tree"* %this1, i32 0, i32 0, !dbg !1733
  call void @_ZNSt8_Rb_treeINSt7__cxx1112basic_stringIcSt11char_traitsIcESaIcEEESt4pairIKS5_iESt10_Select1stIS8_ESt4lessIS5_ESaIS8_EE13_Rb_tree_implISC_Lb0EED2Ev(%"struct.std::_Rb_tree<std::__cxx11::basic_string<char>, std::pair<const std::__cxx11::basic_string<char>, int>, std::_Select1st<std::pair<const std::__cxx11::basic_string<char>, int> >, std::less<std::__cxx11::basic_string<char> >, std::allocator<std::pair<const std::__cxx11::basic_string<char>, int> > >::_Rb_tree_impl"* %_M_impl3) #5, !dbg !1733
  br label %eh.resume, !dbg !1733

eh.resume:                                        ; preds = %lpad
  %exn = load i8*, i8** %exn.slot, !dbg !1736
  %sel = load i32, i32* %ehselector.slot, !dbg !1736
  %lpad.val = insertvalue { i8*, i32 } undef, i8* %exn, 0, !dbg !1736
  %lpad.val4 = insertvalue { i8*, i32 } %lpad.val, i32 %sel, 1, !dbg !1736
  resume { i8*, i32 } %lpad.val4, !dbg !1736
}

; Function Attrs: uwtable
define linkonce_odr void @_ZNSt8_Rb_treeINSt7__cxx1112basic_stringIcSt11char_traitsIcESaIcEEESt4pairIKS5_iESt10_Select1stIS8_ESt4lessIS5_ESaIS8_EE8_M_eraseEPSt13_Rb_tree_nodeIS8_E(%"class.std::_Rb_tree"* %this, %"struct.std::_Rb_tree_node"* %__x) #2 comdat align 2 {
entry:
  %this.addr = alloca %"class.std::_Rb_tree"*, align 8
  %__x.addr = alloca %"struct.std::_Rb_tree_node"*, align 8
  %__y = alloca %"struct.std::_Rb_tree_node"*, align 8
  store %"class.std::_Rb_tree"* %this, %"class.std::_Rb_tree"** %this.addr, align 8
  call void @llvm.dbg.declare(metadata %"class.std::_Rb_tree"** %this.addr, metadata !1738, metadata !1377), !dbg !1739
  store %"struct.std::_Rb_tree_node"* %__x, %"struct.std::_Rb_tree_node"** %__x.addr, align 8
  call void @llvm.dbg.declare(metadata %"struct.std::_Rb_tree_node"** %__x.addr, metadata !1740, metadata !1377), !dbg !1741
  %this1 = load %"class.std::_Rb_tree"*, %"class.std::_Rb_tree"** %this.addr
  br label %while.cond, !dbg !1742

while.cond:                                       ; preds = %while.body, %entry
  %0 = load %"struct.std::_Rb_tree_node"*, %"struct.std::_Rb_tree_node"** %__x.addr, align 8, !dbg !1743
  %cmp = icmp ne %"struct.std::_Rb_tree_node"* %0, null, !dbg !1746
  br i1 %cmp, label %while.body, label %while.end, !dbg !1742

while.body:                                       ; preds = %while.cond
  %1 = load %"struct.std::_Rb_tree_node"*, %"struct.std::_Rb_tree_node"** %__x.addr, align 8, !dbg !1747
  %2 = bitcast %"struct.std::_Rb_tree_node"* %1 to %"struct.std::_Rb_tree_node_base"*, !dbg !1747
  %call = call %"struct.std::_Rb_tree_node"* @_ZNSt8_Rb_treeINSt7__cxx1112basic_stringIcSt11char_traitsIcESaIcEEESt4pairIKS5_iESt10_Select1stIS8_ESt4lessIS5_ESaIS8_EE8_S_rightEPSt18_Rb_tree_node_base(%"struct.std::_Rb_tree_node_base"* %2), !dbg !1749
  call void @_ZNSt8_Rb_treeINSt7__cxx1112basic_stringIcSt11char_traitsIcESaIcEEESt4pairIKS5_iESt10_Select1stIS8_ESt4lessIS5_ESaIS8_EE8_M_eraseEPSt13_Rb_tree_nodeIS8_E(%"class.std::_Rb_tree"* %this1, %"struct.std::_Rb_tree_node"* %call), !dbg !1750
  call void @llvm.dbg.declare(metadata %"struct.std::_Rb_tree_node"** %__y, metadata !1751, metadata !1377), !dbg !1752
  %3 = load %"struct.std::_Rb_tree_node"*, %"struct.std::_Rb_tree_node"** %__x.addr, align 8, !dbg !1753
  %4 = bitcast %"struct.std::_Rb_tree_node"* %3 to %"struct.std::_Rb_tree_node_base"*, !dbg !1753
  %call2 = call %"struct.std::_Rb_tree_node"* @_ZNSt8_Rb_treeINSt7__cxx1112basic_stringIcSt11char_traitsIcESaIcEEESt4pairIKS5_iESt10_Select1stIS8_ESt4lessIS5_ESaIS8_EE7_S_leftEPSt18_Rb_tree_node_base(%"struct.std::_Rb_tree_node_base"* %4), !dbg !1754
  store %"struct.std::_Rb_tree_node"* %call2, %"struct.std::_Rb_tree_node"** %__y, align 8, !dbg !1752
  %5 = load %"struct.std::_Rb_tree_node"*, %"struct.std::_Rb_tree_node"** %__x.addr, align 8, !dbg !1755
  call void @_ZNSt8_Rb_treeINSt7__cxx1112basic_stringIcSt11char_traitsIcESaIcEEESt4pairIKS5_iESt10_Select1stIS8_ESt4lessIS5_ESaIS8_EE12_M_drop_nodeEPSt13_Rb_tree_nodeIS8_E(%"class.std::_Rb_tree"* %this1, %"struct.std::_Rb_tree_node"* %5), !dbg !1756
  %6 = load %"struct.std::_Rb_tree_node"*, %"struct.std::_Rb_tree_node"** %__y, align 8, !dbg !1757
  store %"struct.std::_Rb_tree_node"* %6, %"struct.std::_Rb_tree_node"** %__x.addr, align 8, !dbg !1758
  br label %while.cond, !dbg !1742

while.end:                                        ; preds = %while.cond
  ret void, !dbg !1759
}

; Function Attrs: nounwind uwtable
define linkonce_odr %"struct.std::_Rb_tree_node"* @_ZNSt8_Rb_treeINSt7__cxx1112basic_stringIcSt11char_traitsIcESaIcEEESt4pairIKS5_iESt10_Select1stIS8_ESt4lessIS5_ESaIS8_EE8_S_rightEPSt18_Rb_tree_node_base(%"struct.std::_Rb_tree_node_base"* %__x) #0 comdat align 2 {
entry:
  %__x.addr = alloca %"struct.std::_Rb_tree_node_base"*, align 8
  store %"struct.std::_Rb_tree_node_base"* %__x, %"struct.std::_Rb_tree_node_base"** %__x.addr, align 8
  call void @llvm.dbg.declare(metadata %"struct.std::_Rb_tree_node_base"** %__x.addr, metadata !1760, metadata !1377), !dbg !1761
  %0 = load %"struct.std::_Rb_tree_node_base"*, %"struct.std::_Rb_tree_node_base"** %__x.addr, align 8, !dbg !1762
  %_M_right = getelementptr inbounds %"struct.std::_Rb_tree_node_base", %"struct.std::_Rb_tree_node_base"* %0, i32 0, i32 3, !dbg !1763
  %1 = load %"struct.std::_Rb_tree_node_base"*, %"struct.std::_Rb_tree_node_base"** %_M_right, align 8, !dbg !1763
  %2 = bitcast %"struct.std::_Rb_tree_node_base"* %1 to %"struct.std::_Rb_tree_node"*, !dbg !1764
  ret %"struct.std::_Rb_tree_node"* %2, !dbg !1765
}

; Function Attrs: nounwind uwtable
define linkonce_odr %"struct.std::_Rb_tree_node"* @_ZNSt8_Rb_treeINSt7__cxx1112basic_stringIcSt11char_traitsIcESaIcEEESt4pairIKS5_iESt10_Select1stIS8_ESt4lessIS5_ESaIS8_EE7_S_leftEPSt18_Rb_tree_node_base(%"struct.std::_Rb_tree_node_base"* %__x) #0 comdat align 2 {
entry:
  %__x.addr = alloca %"struct.std::_Rb_tree_node_base"*, align 8
  store %"struct.std::_Rb_tree_node_base"* %__x, %"struct.std::_Rb_tree_node_base"** %__x.addr, align 8
  call void @llvm.dbg.declare(metadata %"struct.std::_Rb_tree_node_base"** %__x.addr, metadata !1766, metadata !1377), !dbg !1767
  %0 = load %"struct.std::_Rb_tree_node_base"*, %"struct.std::_Rb_tree_node_base"** %__x.addr, align 8, !dbg !1768
  %_M_left = getelementptr inbounds %"struct.std::_Rb_tree_node_base", %"struct.std::_Rb_tree_node_base"* %0, i32 0, i32 2, !dbg !1769
  %1 = load %"struct.std::_Rb_tree_node_base"*, %"struct.std::_Rb_tree_node_base"** %_M_left, align 8, !dbg !1769
  %2 = bitcast %"struct.std::_Rb_tree_node_base"* %1 to %"struct.std::_Rb_tree_node"*, !dbg !1770
  ret %"struct.std::_Rb_tree_node"* %2, !dbg !1771
}

; Function Attrs: uwtable
define linkonce_odr void @_ZNSt8_Rb_treeINSt7__cxx1112basic_stringIcSt11char_traitsIcESaIcEEESt4pairIKS5_iESt10_Select1stIS8_ESt4lessIS5_ESaIS8_EE12_M_drop_nodeEPSt13_Rb_tree_nodeIS8_E(%"class.std::_Rb_tree"* %this, %"struct.std::_Rb_tree_node"* %__p) #2 comdat align 2 {
entry:
  %this.addr = alloca %"class.std::_Rb_tree"*, align 8
  %__p.addr = alloca %"struct.std::_Rb_tree_node"*, align 8
  store %"class.std::_Rb_tree"* %this, %"class.std::_Rb_tree"** %this.addr, align 8
  call void @llvm.dbg.declare(metadata %"class.std::_Rb_tree"** %this.addr, metadata !1772, metadata !1377), !dbg !1773
  store %"struct.std::_Rb_tree_node"* %__p, %"struct.std::_Rb_tree_node"** %__p.addr, align 8
  call void @llvm.dbg.declare(metadata %"struct.std::_Rb_tree_node"** %__p.addr, metadata !1774, metadata !1377), !dbg !1775
  %this1 = load %"class.std::_Rb_tree"*, %"class.std::_Rb_tree"** %this.addr
  %0 = load %"struct.std::_Rb_tree_node"*, %"struct.std::_Rb_tree_node"** %__p.addr, align 8, !dbg !1776
  call void @_ZNSt8_Rb_treeINSt7__cxx1112basic_stringIcSt11char_traitsIcESaIcEEESt4pairIKS5_iESt10_Select1stIS8_ESt4lessIS5_ESaIS8_EE15_M_destroy_nodeEPSt13_Rb_tree_nodeIS8_E(%"class.std::_Rb_tree"* %this1, %"struct.std::_Rb_tree_node"* %0), !dbg !1777
  %1 = load %"struct.std::_Rb_tree_node"*, %"struct.std::_Rb_tree_node"** %__p.addr, align 8, !dbg !1778
  call void @_ZNSt8_Rb_treeINSt7__cxx1112basic_stringIcSt11char_traitsIcESaIcEEESt4pairIKS5_iESt10_Select1stIS8_ESt4lessIS5_ESaIS8_EE11_M_put_nodeEPSt13_Rb_tree_nodeIS8_E(%"class.std::_Rb_tree"* %this1, %"struct.std::_Rb_tree_node"* %1), !dbg !1779
  ret void, !dbg !1780
}

; Function Attrs: uwtable
define linkonce_odr void @_ZNSt8_Rb_treeINSt7__cxx1112basic_stringIcSt11char_traitsIcESaIcEEESt4pairIKS5_iESt10_Select1stIS8_ESt4lessIS5_ESaIS8_EE15_M_destroy_nodeEPSt13_Rb_tree_nodeIS8_E(%"class.std::_Rb_tree"* %this, %"struct.std::_Rb_tree_node"* %__p) #2 comdat align 2 {
entry:
  %this.addr = alloca %"class.std::_Rb_tree"*, align 8
  %__p.addr = alloca %"struct.std::_Rb_tree_node"*, align 8
  %temp.lvalue = alloca %"struct.std::less", align 1
  %exn.slot = alloca i8*
  %ehselector.slot = alloca i32
  store %"class.std::_Rb_tree"* %this, %"class.std::_Rb_tree"** %this.addr, align 8
  call void @llvm.dbg.declare(metadata %"class.std::_Rb_tree"** %this.addr, metadata !1781, metadata !1377), !dbg !1782
  store %"struct.std::_Rb_tree_node"* %__p, %"struct.std::_Rb_tree_node"** %__p.addr, align 8
  call void @llvm.dbg.declare(metadata %"struct.std::_Rb_tree_node"** %__p.addr, metadata !1783, metadata !1377), !dbg !1784
  %this1 = load %"class.std::_Rb_tree"*, %"class.std::_Rb_tree"** %this.addr
  call void @_ZNKSt8_Rb_treeINSt7__cxx1112basic_stringIcSt11char_traitsIcESaIcEEESt4pairIKS5_iESt10_Select1stIS8_ESt4lessIS5_ESaIS8_EE13get_allocatorEv(%"struct.std::less"* sret %temp.lvalue, %"class.std::_Rb_tree"* %this1), !dbg !1785
  %0 = bitcast %"struct.std::less"* %temp.lvalue to %"struct.std::less"*, !dbg !1785
  %1 = load %"struct.std::_Rb_tree_node"*, %"struct.std::_Rb_tree_node"** %__p.addr, align 8, !dbg !1786
  %call = invoke %"struct.std::pair"* @_ZNSt13_Rb_tree_nodeISt4pairIKNSt7__cxx1112basic_stringIcSt11char_traitsIcESaIcEEEiEE9_M_valptrEv(%"struct.std::_Rb_tree_node"* %1)
          to label %invoke.cont unwind label %lpad, !dbg !1786

invoke.cont:                                      ; preds = %entry
  invoke void @_ZN9__gnu_cxx13new_allocatorISt4pairIKNSt7__cxx1112basic_stringIcSt11char_traitsIcESaIcEEEiEE7destroyEPS9_(%"struct.std::less"* %0, %"struct.std::pair"* %call)
          to label %invoke.cont2 unwind label %lpad, !dbg !1787

invoke.cont2:                                     ; preds = %invoke.cont
  call void @_ZNSaISt4pairIKNSt7__cxx1112basic_stringIcSt11char_traitsIcESaIcEEEiEED2Ev(%"struct.std::less"* %temp.lvalue) #5, !dbg !1789
  ret void, !dbg !1791

lpad:                                             ; preds = %invoke.cont, %entry
  %2 = landingpad { i8*, i32 } personality i8* bitcast (i32 (...)* @__gxx_personality_v0 to i8*)
          cleanup, !dbg !1792
  %3 = extractvalue { i8*, i32 } %2, 0, !dbg !1792
  store i8* %3, i8** %exn.slot, !dbg !1792
  %4 = extractvalue { i8*, i32 } %2, 1, !dbg !1792
  store i32 %4, i32* %ehselector.slot, !dbg !1792
  call void @_ZNSaISt4pairIKNSt7__cxx1112basic_stringIcSt11char_traitsIcESaIcEEEiEED2Ev(%"struct.std::less"* %temp.lvalue) #5, !dbg !1785
  br label %eh.resume, !dbg !1785

eh.resume:                                        ; preds = %lpad
  %exn = load i8*, i8** %exn.slot, !dbg !1795
  %sel = load i32, i32* %ehselector.slot, !dbg !1795
  %lpad.val = insertvalue { i8*, i32 } undef, i8* %exn, 0, !dbg !1795
  %lpad.val3 = insertvalue { i8*, i32 } %lpad.val, i32 %sel, 1, !dbg !1795
  resume { i8*, i32 } %lpad.val3, !dbg !1795
}

; Function Attrs: uwtable
define linkonce_odr void @_ZNKSt8_Rb_treeINSt7__cxx1112basic_stringIcSt11char_traitsIcESaIcEEESt4pairIKS5_iESt10_Select1stIS8_ESt4lessIS5_ESaIS8_EE13get_allocatorEv(%"struct.std::less"* noalias sret %agg.result, %"class.std::_Rb_tree"* %this) #2 comdat align 2 {
entry:
  %this.addr = alloca %"class.std::_Rb_tree"*, align 8
  store %"class.std::_Rb_tree"* %this, %"class.std::_Rb_tree"** %this.addr, align 8
  call void @llvm.dbg.declare(metadata %"class.std::_Rb_tree"** %this.addr, metadata !1797, metadata !1377), !dbg !1799
  %this1 = load %"class.std::_Rb_tree"*, %"class.std::_Rb_tree"** %this.addr
  %call = call dereferenceable(1) %"struct.std::less"* @_ZNKSt8_Rb_treeINSt7__cxx1112basic_stringIcSt11char_traitsIcESaIcEEESt4pairIKS5_iESt10_Select1stIS8_ESt4lessIS5_ESaIS8_EE21_M_get_Node_allocatorEv(%"class.std::_Rb_tree"* %this1), !dbg !1800
  call void @_ZNSaISt4pairIKNSt7__cxx1112basic_stringIcSt11char_traitsIcESaIcEEEiEEC2ISt13_Rb_tree_nodeIS7_EEERKSaIT_E(%"struct.std::less"* %agg.result, %"struct.std::less"* dereferenceable(1) %call) #5, !dbg !1801
  ret void, !dbg !1802
}

; Function Attrs: nounwind uwtable
define linkonce_odr dereferenceable(1) %"struct.std::less"* @_ZNKSt8_Rb_treeINSt7__cxx1112basic_stringIcSt11char_traitsIcESaIcEEESt4pairIKS5_iESt10_Select1stIS8_ESt4lessIS5_ESaIS8_EE21_M_get_Node_allocatorEv(%"class.std::_Rb_tree"* %this) #0 comdat align 2 {
entry:
  %this.addr = alloca %"class.std::_Rb_tree"*, align 8
  store %"class.std::_Rb_tree"* %this, %"class.std::_Rb_tree"** %this.addr, align 8
  call void @llvm.dbg.declare(metadata %"class.std::_Rb_tree"** %this.addr, metadata !1803, metadata !1377), !dbg !1804
  %this1 = load %"class.std::_Rb_tree"*, %"class.std::_Rb_tree"** %this.addr
  %_M_impl = getelementptr inbounds %"class.std::_Rb_tree", %"class.std::_Rb_tree"* %this1, i32 0, i32 0, !dbg !1805
  %0 = bitcast %"struct.std::_Rb_tree<std::__cxx11::basic_string<char>, std::pair<const std::__cxx11::basic_string<char>, int>, std::_Select1st<std::pair<const std::__cxx11::basic_string<char>, int> >, std::less<std::__cxx11::basic_string<char> >, std::allocator<std::pair<const std::__cxx11::basic_string<char>, int> > >::_Rb_tree_impl"* %_M_impl to %"struct.std::less"*, !dbg !1806
  ret %"struct.std::less"* %0, !dbg !1807
}

; Function Attrs: nounwind uwtable
define linkonce_odr void @_ZNSaISt4pairIKNSt7__cxx1112basic_stringIcSt11char_traitsIcESaIcEEEiEEC2ISt13_Rb_tree_nodeIS7_EEERKSaIT_E(%"struct.std::less"* %this, %"struct.std::less"* dereferenceable(1)) unnamed_addr #0 comdat align 2 {
entry:
  %this.addr = alloca %"struct.std::less"*, align 8
  %.addr = alloca %"struct.std::less"*, align 8
  store %"struct.std::less"* %this, %"struct.std::less"** %this.addr, align 8
  call void @llvm.dbg.declare(metadata %"struct.std::less"** %this.addr, metadata !1808, metadata !1377), !dbg !1810
  store %"struct.std::less"* %0, %"struct.std::less"** %.addr, align 8
  call void @llvm.dbg.declare(metadata %"struct.std::less"** %.addr, metadata !1811, metadata !1377), !dbg !1812
  %this1 = load %"struct.std::less"*, %"struct.std::less"** %this.addr
  %1 = bitcast %"struct.std::less"* %this1 to %"struct.std::less"*, !dbg !1813
  call void @_ZN9__gnu_cxx13new_allocatorISt4pairIKNSt7__cxx1112basic_stringIcSt11char_traitsIcESaIcEEEiEEC2Ev(%"struct.std::less"* %1) #5, !dbg !1814
  ret void, !dbg !1815
}

; Function Attrs: nounwind uwtable
define linkonce_odr void @_ZN9__gnu_cxx13new_allocatorISt4pairIKNSt7__cxx1112basic_stringIcSt11char_traitsIcESaIcEEEiEEC2Ev(%"struct.std::less"* %this) unnamed_addr #0 comdat align 2 {
entry:
  %this.addr = alloca %"struct.std::less"*, align 8
  store %"struct.std::less"* %this, %"struct.std::less"** %this.addr, align 8
  call void @llvm.dbg.declare(metadata %"struct.std::less"** %this.addr, metadata !1816, metadata !1377), !dbg !1818
  %this1 = load %"struct.std::less"*, %"struct.std::less"** %this.addr
  ret void, !dbg !1819
}

; Function Attrs: uwtable
define linkonce_odr void @_ZN9__gnu_cxx13new_allocatorISt4pairIKNSt7__cxx1112basic_stringIcSt11char_traitsIcESaIcEEEiEE7destroyEPS9_(%"struct.std::less"* %this, %"struct.std::pair"* %__p) #2 comdat align 2 {
entry:
  %this.addr = alloca %"struct.std::less"*, align 8
  %__p.addr = alloca %"struct.std::pair"*, align 8
  store %"struct.std::less"* %this, %"struct.std::less"** %this.addr, align 8
  call void @llvm.dbg.declare(metadata %"struct.std::less"** %this.addr, metadata !1820, metadata !1377), !dbg !1821
  store %"struct.std::pair"* %__p, %"struct.std::pair"** %__p.addr, align 8
  call void @llvm.dbg.declare(metadata %"struct.std::pair"** %__p.addr, metadata !1822, metadata !1377), !dbg !1823
  %this1 = load %"struct.std::less"*, %"struct.std::less"** %this.addr
  %0 = load %"struct.std::pair"*, %"struct.std::pair"** %__p.addr, align 8, !dbg !1824
  call void @_ZNSt4pairIKNSt7__cxx1112basic_stringIcSt11char_traitsIcESaIcEEEiED2Ev(%"struct.std::pair"* %0), !dbg !1824
  ret void, !dbg !1825
}

; Function Attrs: inlinehint uwtable
define linkonce_odr void @_ZNSt4pairIKNSt7__cxx1112basic_stringIcSt11char_traitsIcESaIcEEEiED2Ev(%"struct.std::pair"* %this) unnamed_addr #11 comdat align 2 {
entry:
  %this.addr = alloca %"struct.std::pair"*, align 8
  store %"struct.std::pair"* %this, %"struct.std::pair"** %this.addr, align 8
  call void @llvm.dbg.declare(metadata %"struct.std::pair"** %this.addr, metadata !1826, metadata !1377), !dbg !1827
  %this1 = load %"struct.std::pair"*, %"struct.std::pair"** %this.addr
  %first = getelementptr inbounds %"struct.std::pair", %"struct.std::pair"* %this1, i32 0, i32 0, !dbg !1828
  call void @_ZNSt7__cxx1112basic_stringIcSt11char_traitsIcESaIcEED1Ev(%"class.std::__cxx11::basic_string"* %first), !dbg !1828
  ret void, !dbg !1830
}

; Function Attrs: uwtable
define linkonce_odr %"struct.std::pair"* @_ZNSt13_Rb_tree_nodeISt4pairIKNSt7__cxx1112basic_stringIcSt11char_traitsIcESaIcEEEiEE9_M_valptrEv(%"struct.std::_Rb_tree_node"* %this) #2 comdat align 2 {
entry:
  %this.addr = alloca %"struct.std::_Rb_tree_node"*, align 8
  store %"struct.std::_Rb_tree_node"* %this, %"struct.std::_Rb_tree_node"** %this.addr, align 8
  call void @llvm.dbg.declare(metadata %"struct.std::_Rb_tree_node"** %this.addr, metadata !1831, metadata !1377), !dbg !1832
  %this1 = load %"struct.std::_Rb_tree_node"*, %"struct.std::_Rb_tree_node"** %this.addr
  %_M_value_field = getelementptr inbounds %"struct.std::_Rb_tree_node", %"struct.std::_Rb_tree_node"* %this1, i32 0, i32 1, !dbg !1833
  %call = call %"struct.std::pair"* @_ZSt11__addressofISt4pairIKNSt7__cxx1112basic_stringIcSt11char_traitsIcESaIcEEEiEEPT_RS9_(%"struct.std::pair"* dereferenceable(40) %_M_value_field), !dbg !1834
  ret %"struct.std::pair"* %call, !dbg !1835
}

; Function Attrs: inlinehint nounwind uwtable
define linkonce_odr %"struct.std::pair"* @_ZSt11__addressofISt4pairIKNSt7__cxx1112basic_stringIcSt11char_traitsIcESaIcEEEiEEPT_RS9_(%"struct.std::pair"* dereferenceable(40) %__r) #12 comdat {
entry:
  %__r.addr = alloca %"struct.std::pair"*, align 8
  store %"struct.std::pair"* %__r, %"struct.std::pair"** %__r.addr, align 8
  call void @llvm.dbg.declare(metadata %"struct.std::pair"** %__r.addr, metadata !1836, metadata !1377), !dbg !1837
  %0 = load %"struct.std::pair"*, %"struct.std::pair"** %__r.addr, align 8, !dbg !1838
  %1 = bitcast %"struct.std::pair"* %0 to i8*, !dbg !1839
  %2 = bitcast i8* %1 to %"struct.std::pair"*, !dbg !1840
  ret %"struct.std::pair"* %2, !dbg !1841
}

; Function Attrs: nounwind uwtable
define linkonce_odr void @_ZNSaISt4pairIKNSt7__cxx1112basic_stringIcSt11char_traitsIcESaIcEEEiEED2Ev(%"struct.std::less"* %this) unnamed_addr #0 comdat align 2 {
entry:
  %this.addr = alloca %"struct.std::less"*, align 8
  store %"struct.std::less"* %this, %"struct.std::less"** %this.addr, align 8
  call void @llvm.dbg.declare(metadata %"struct.std::less"** %this.addr, metadata !1842, metadata !1377), !dbg !1843
  %this1 = load %"struct.std::less"*, %"struct.std::less"** %this.addr
  %0 = bitcast %"struct.std::less"* %this1 to %"struct.std::less"*, !dbg !1844
  call void @_ZN9__gnu_cxx13new_allocatorISt4pairIKNSt7__cxx1112basic_stringIcSt11char_traitsIcESaIcEEEiEED2Ev(%"struct.std::less"* %0) #5, !dbg !1844
  ret void, !dbg !1846
}

; Function Attrs: nounwind uwtable
define linkonce_odr void @_ZN9__gnu_cxx13new_allocatorISt4pairIKNSt7__cxx1112basic_stringIcSt11char_traitsIcESaIcEEEiEED2Ev(%"struct.std::less"* %this) unnamed_addr #0 comdat align 2 {
entry:
  %this.addr = alloca %"struct.std::less"*, align 8
  store %"struct.std::less"* %this, %"struct.std::less"** %this.addr, align 8
  call void @llvm.dbg.declare(metadata %"struct.std::less"** %this.addr, metadata !1847, metadata !1377), !dbg !1848
  %this1 = load %"struct.std::less"*, %"struct.std::less"** %this.addr
  ret void, !dbg !1849
}

; Function Attrs: uwtable
define linkonce_odr void @_ZNSt8_Rb_treeINSt7__cxx1112basic_stringIcSt11char_traitsIcESaIcEEESt4pairIKS5_iESt10_Select1stIS8_ESt4lessIS5_ESaIS8_EE11_M_put_nodeEPSt13_Rb_tree_nodeIS8_E(%"class.std::_Rb_tree"* %this, %"struct.std::_Rb_tree_node"* %__p) #2 comdat align 2 {
entry:
  %this.addr = alloca %"class.std::_Rb_tree"*, align 8
  %__p.addr = alloca %"struct.std::_Rb_tree_node"*, align 8
  store %"class.std::_Rb_tree"* %this, %"class.std::_Rb_tree"** %this.addr, align 8
  call void @llvm.dbg.declare(metadata %"class.std::_Rb_tree"** %this.addr, metadata !1850, metadata !1377), !dbg !1851
  store %"struct.std::_Rb_tree_node"* %__p, %"struct.std::_Rb_tree_node"** %__p.addr, align 8
  call void @llvm.dbg.declare(metadata %"struct.std::_Rb_tree_node"** %__p.addr, metadata !1852, metadata !1377), !dbg !1853
  %this1 = load %"class.std::_Rb_tree"*, %"class.std::_Rb_tree"** %this.addr
  %call = call dereferenceable(1) %"struct.std::less"* @_ZNSt8_Rb_treeINSt7__cxx1112basic_stringIcSt11char_traitsIcESaIcEEESt4pairIKS5_iESt10_Select1stIS8_ESt4lessIS5_ESaIS8_EE21_M_get_Node_allocatorEv(%"class.std::_Rb_tree"* %this1), !dbg !1854
  %0 = load %"struct.std::_Rb_tree_node"*, %"struct.std::_Rb_tree_node"** %__p.addr, align 8, !dbg !1855
  call void @_ZN9__gnu_cxx14__alloc_traitsISaISt13_Rb_tree_nodeISt4pairIKNSt7__cxx1112basic_stringIcSt11char_traitsIcESaIcEEEiEEEE10deallocateERSC_PSB_m(%"struct.std::less"* dereferenceable(1) %call, %"struct.std::_Rb_tree_node"* %0, i64 1), !dbg !1856
  ret void, !dbg !1857
}

; Function Attrs: uwtable
define linkonce_odr void @_ZN9__gnu_cxx14__alloc_traitsISaISt13_Rb_tree_nodeISt4pairIKNSt7__cxx1112basic_stringIcSt11char_traitsIcESaIcEEEiEEEE10deallocateERSC_PSB_m(%"struct.std::less"* dereferenceable(1) %__a, %"struct.std::_Rb_tree_node"* %__p, i64 %__n) #2 comdat align 2 {
entry:
  %__a.addr = alloca %"struct.std::less"*, align 8
  %__p.addr = alloca %"struct.std::_Rb_tree_node"*, align 8
  %__n.addr = alloca i64, align 8
  store %"struct.std::less"* %__a, %"struct.std::less"** %__a.addr, align 8
  call void @llvm.dbg.declare(metadata %"struct.std::less"** %__a.addr, metadata !1858, metadata !1377), !dbg !1859
  store %"struct.std::_Rb_tree_node"* %__p, %"struct.std::_Rb_tree_node"** %__p.addr, align 8
  call void @llvm.dbg.declare(metadata %"struct.std::_Rb_tree_node"** %__p.addr, metadata !1860, metadata !1377), !dbg !1861
  store i64 %__n, i64* %__n.addr, align 8
  call void @llvm.dbg.declare(metadata i64* %__n.addr, metadata !1862, metadata !1377), !dbg !1863
  %0 = load %"struct.std::less"*, %"struct.std::less"** %__a.addr, align 8, !dbg !1864
  %1 = bitcast %"struct.std::less"* %0 to %"struct.std::less"*, !dbg !1864
  %2 = load %"struct.std::_Rb_tree_node"*, %"struct.std::_Rb_tree_node"** %__p.addr, align 8, !dbg !1865
  %3 = load i64, i64* %__n.addr, align 8, !dbg !1866
  call void @_ZN9__gnu_cxx13new_allocatorISt13_Rb_tree_nodeISt4pairIKNSt7__cxx1112basic_stringIcSt11char_traitsIcESaIcEEEiEEE10deallocateEPSB_m(%"struct.std::less"* %1, %"struct.std::_Rb_tree_node"* %2, i64 %3), !dbg !1864
  ret void, !dbg !1867
}

; Function Attrs: nounwind uwtable
define linkonce_odr void @_ZN9__gnu_cxx13new_allocatorISt13_Rb_tree_nodeISt4pairIKNSt7__cxx1112basic_stringIcSt11char_traitsIcESaIcEEEiEEE10deallocateEPSB_m(%"struct.std::less"* %this, %"struct.std::_Rb_tree_node"* %__p, i64) #0 comdat align 2 {
entry:
  %this.addr = alloca %"struct.std::less"*, align 8
  %__p.addr = alloca %"struct.std::_Rb_tree_node"*, align 8
  %.addr = alloca i64, align 8
  store %"struct.std::less"* %this, %"struct.std::less"** %this.addr, align 8
  call void @llvm.dbg.declare(metadata %"struct.std::less"** %this.addr, metadata !1868, metadata !1377), !dbg !1870
  store %"struct.std::_Rb_tree_node"* %__p, %"struct.std::_Rb_tree_node"** %__p.addr, align 8
  call void @llvm.dbg.declare(metadata %"struct.std::_Rb_tree_node"** %__p.addr, metadata !1871, metadata !1377), !dbg !1872
  store i64 %0, i64* %.addr, align 8
  call void @llvm.dbg.declare(metadata i64* %.addr, metadata !1873, metadata !1377), !dbg !1874
  %this1 = load %"struct.std::less"*, %"struct.std::less"** %this.addr
  %1 = load %"struct.std::_Rb_tree_node"*, %"struct.std::_Rb_tree_node"** %__p.addr, align 8, !dbg !1875
  %2 = bitcast %"struct.std::_Rb_tree_node"* %1 to i8*, !dbg !1875
  call void @_ZdlPv(i8* %2) #5, !dbg !1876
  ret void, !dbg !1877
}

; Function Attrs: nounwind uwtable
define linkonce_odr dereferenceable(1) %"struct.std::less"* @_ZNSt8_Rb_treeINSt7__cxx1112basic_stringIcSt11char_traitsIcESaIcEEESt4pairIKS5_iESt10_Select1stIS8_ESt4lessIS5_ESaIS8_EE21_M_get_Node_allocatorEv(%"class.std::_Rb_tree"* %this) #0 comdat align 2 {
entry:
  %this.addr = alloca %"class.std::_Rb_tree"*, align 8
  store %"class.std::_Rb_tree"* %this, %"class.std::_Rb_tree"** %this.addr, align 8
  call void @llvm.dbg.declare(metadata %"class.std::_Rb_tree"** %this.addr, metadata !1878, metadata !1377), !dbg !1879
  %this1 = load %"class.std::_Rb_tree"*, %"class.std::_Rb_tree"** %this.addr
  %_M_impl = getelementptr inbounds %"class.std::_Rb_tree", %"class.std::_Rb_tree"* %this1, i32 0, i32 0, !dbg !1880
  %0 = bitcast %"struct.std::_Rb_tree<std::__cxx11::basic_string<char>, std::pair<const std::__cxx11::basic_string<char>, int>, std::_Select1st<std::pair<const std::__cxx11::basic_string<char>, int> >, std::less<std::__cxx11::basic_string<char> >, std::allocator<std::pair<const std::__cxx11::basic_string<char>, int> > >::_Rb_tree_impl"* %_M_impl to %"struct.std::less"*, !dbg !1881
  ret %"struct.std::less"* %0, !dbg !1882
}

; Function Attrs: nounwind uwtable
define linkonce_odr %"struct.std::_Rb_tree_node"* @_ZNSt8_Rb_treeINSt7__cxx1112basic_stringIcSt11char_traitsIcESaIcEEESt4pairIKS5_iESt10_Select1stIS8_ESt4lessIS5_ESaIS8_EE8_M_beginEv(%"class.std::_Rb_tree"* %this) #0 comdat align 2 {
entry:
  %this.addr = alloca %"class.std::_Rb_tree"*, align 8
  store %"class.std::_Rb_tree"* %this, %"class.std::_Rb_tree"** %this.addr, align 8
  call void @llvm.dbg.declare(metadata %"class.std::_Rb_tree"** %this.addr, metadata !1883, metadata !1377), !dbg !1884
  %this1 = load %"class.std::_Rb_tree"*, %"class.std::_Rb_tree"** %this.addr
  %_M_impl = getelementptr inbounds %"class.std::_Rb_tree", %"class.std::_Rb_tree"* %this1, i32 0, i32 0, !dbg !1885
  %_M_header = getelementptr inbounds %"struct.std::_Rb_tree<std::__cxx11::basic_string<char>, std::pair<const std::__cxx11::basic_string<char>, int>, std::_Select1st<std::pair<const std::__cxx11::basic_string<char>, int> >, std::less<std::__cxx11::basic_string<char> >, std::allocator<std::pair<const std::__cxx11::basic_string<char>, int> > >::_Rb_tree_impl", %"struct.std::_Rb_tree<std::__cxx11::basic_string<char>, std::pair<const std::__cxx11::basic_string<char>, int>, std::_Select1st<std::pair<const std::__cxx11::basic_string<char>, int> >, std::less<std::__cxx11::basic_string<char> >, std::allocator<std::pair<const std::__cxx11::basic_string<char>, int> > >::_Rb_tree_impl"* %_M_impl, i32 0, i32 1, !dbg !1886
  %_M_parent = getelementptr inbounds %"struct.std::_Rb_tree_node_base", %"struct.std::_Rb_tree_node_base"* %_M_header, i32 0, i32 1, !dbg !1887
  %0 = load %"struct.std::_Rb_tree_node_base"*, %"struct.std::_Rb_tree_node_base"** %_M_parent, align 8, !dbg !1887
  %1 = bitcast %"struct.std::_Rb_tree_node_base"* %0 to %"struct.std::_Rb_tree_node"*, !dbg !1888
  ret %"struct.std::_Rb_tree_node"* %1, !dbg !1889
}

; Function Attrs: inlinehint nounwind uwtable
define linkonce_odr void @_ZNSt8_Rb_treeINSt7__cxx1112basic_stringIcSt11char_traitsIcESaIcEEESt4pairIKS5_iESt10_Select1stIS8_ESt4lessIS5_ESaIS8_EE13_Rb_tree_implISC_Lb0EED2Ev(%"struct.std::_Rb_tree<std::__cxx11::basic_string<char>, std::pair<const std::__cxx11::basic_string<char>, int>, std::_Select1st<std::pair<const std::__cxx11::basic_string<char>, int> >, std::less<std::__cxx11::basic_string<char> >, std::allocator<std::pair<const std::__cxx11::basic_string<char>, int> > >::_Rb_tree_impl"* %this) unnamed_addr #12 comdat align 2 {
entry:
  %this.addr = alloca %"struct.std::_Rb_tree<std::__cxx11::basic_string<char>, std::pair<const std::__cxx11::basic_string<char>, int>, std::_Select1st<std::pair<const std::__cxx11::basic_string<char>, int> >, std::less<std::__cxx11::basic_string<char> >, std::allocator<std::pair<const std::__cxx11::basic_string<char>, int> > >::_Rb_tree_impl"*, align 8
  store %"struct.std::_Rb_tree<std::__cxx11::basic_string<char>, std::pair<const std::__cxx11::basic_string<char>, int>, std::_Select1st<std::pair<const std::__cxx11::basic_string<char>, int> >, std::less<std::__cxx11::basic_string<char> >, std::allocator<std::pair<const std::__cxx11::basic_string<char>, int> > >::_Rb_tree_impl"* %this, %"struct.std::_Rb_tree<std::__cxx11::basic_string<char>, std::pair<const std::__cxx11::basic_string<char>, int>, std::_Select1st<std::pair<const std::__cxx11::basic_string<char>, int> >, std::less<std::__cxx11::basic_string<char> >, std::allocator<std::pair<const std::__cxx11::basic_string<char>, int> > >::_Rb_tree_impl"** %this.addr, align 8
  call void @llvm.dbg.declare(metadata %"struct.std::_Rb_tree<std::__cxx11::basic_string<char>, std::pair<const std::__cxx11::basic_string<char>, int>, std::_Select1st<std::pair<const std::__cxx11::basic_string<char>, int> >, std::less<std::__cxx11::basic_string<char> >, std::allocator<std::pair<const std::__cxx11::basic_string<char>, int> > >::_Rb_tree_impl"** %this.addr, metadata !1890, metadata !1377), !dbg !1892
  %this1 = load %"struct.std::_Rb_tree<std::__cxx11::basic_string<char>, std::pair<const std::__cxx11::basic_string<char>, int>, std::_Select1st<std::pair<const std::__cxx11::basic_string<char>, int> >, std::less<std::__cxx11::basic_string<char> >, std::allocator<std::pair<const std::__cxx11::basic_string<char>, int> > >::_Rb_tree_impl"*, %"struct.std::_Rb_tree<std::__cxx11::basic_string<char>, std::pair<const std::__cxx11::basic_string<char>, int>, std::_Select1st<std::pair<const std::__cxx11::basic_string<char>, int> >, std::less<std::__cxx11::basic_string<char> >, std::allocator<std::pair<const std::__cxx11::basic_string<char>, int> > >::_Rb_tree_impl"** %this.addr
  %0 = bitcast %"struct.std::_Rb_tree<std::__cxx11::basic_string<char>, std::pair<const std::__cxx11::basic_string<char>, int>, std::_Select1st<std::pair<const std::__cxx11::basic_string<char>, int> >, std::less<std::__cxx11::basic_string<char> >, std::allocator<std::pair<const std::__cxx11::basic_string<char>, int> > >::_Rb_tree_impl"* %this1 to %"struct.std::less"*, !dbg !1893
  call void @_ZNSaISt13_Rb_tree_nodeISt4pairIKNSt7__cxx1112basic_stringIcSt11char_traitsIcESaIcEEEiEEED2Ev(%"struct.std::less"* %0) #5, !dbg !1893
  ret void, !dbg !1895
}

; Function Attrs: nounwind uwtable
define linkonce_odr void @_ZNSaISt13_Rb_tree_nodeISt4pairIKNSt7__cxx1112basic_stringIcSt11char_traitsIcESaIcEEEiEEED2Ev(%"struct.std::less"* %this) unnamed_addr #0 comdat align 2 {
entry:
  %this.addr = alloca %"struct.std::less"*, align 8
  store %"struct.std::less"* %this, %"struct.std::less"** %this.addr, align 8
  call void @llvm.dbg.declare(metadata %"struct.std::less"** %this.addr, metadata !1896, metadata !1377), !dbg !1898
  %this1 = load %"struct.std::less"*, %"struct.std::less"** %this.addr
  %0 = bitcast %"struct.std::less"* %this1 to %"struct.std::less"*, !dbg !1899
  call void @_ZN9__gnu_cxx13new_allocatorISt13_Rb_tree_nodeISt4pairIKNSt7__cxx1112basic_stringIcSt11char_traitsIcESaIcEEEiEEED2Ev(%"struct.std::less"* %0) #5, !dbg !1899
  ret void, !dbg !1901
}

; Function Attrs: nounwind uwtable
define linkonce_odr void @_ZN9__gnu_cxx13new_allocatorISt13_Rb_tree_nodeISt4pairIKNSt7__cxx1112basic_stringIcSt11char_traitsIcESaIcEEEiEEED2Ev(%"struct.std::less"* %this) unnamed_addr #0 comdat align 2 {
entry:
  %this.addr = alloca %"struct.std::less"*, align 8
  store %"struct.std::less"* %this, %"struct.std::less"** %this.addr, align 8
  call void @llvm.dbg.declare(metadata %"struct.std::less"** %this.addr, metadata !1902, metadata !1377), !dbg !1903
  %this1 = load %"struct.std::less"*, %"struct.std::less"** %this.addr
  ret void, !dbg !1904
}

; Function Attrs: uwtable
define linkonce_odr void @_ZNSt3mapINSt7__cxx1112basic_stringIcSt11char_traitsIcESaIcEEEiSt4lessIS5_ESaISt4pairIKS5_iEEEC2Ev(%"class.std::map"* %this) unnamed_addr #2 comdat align 2 {
entry:
  %this.addr = alloca %"class.std::map"*, align 8
  store %"class.std::map"* %this, %"class.std::map"** %this.addr, align 8
  call void @llvm.dbg.declare(metadata %"class.std::map"** %this.addr, metadata !1905, metadata !1377), !dbg !1906
  %this1 = load %"class.std::map"*, %"class.std::map"** %this.addr
  %_M_t = getelementptr inbounds %"class.std::map", %"class.std::map"* %this1, i32 0, i32 0, !dbg !1907
  call void @_ZNSt8_Rb_treeINSt7__cxx1112basic_stringIcSt11char_traitsIcESaIcEEESt4pairIKS5_iESt10_Select1stIS8_ESt4lessIS5_ESaIS8_EEC2Ev(%"class.std::_Rb_tree"* %_M_t), !dbg !1907
  ret void, !dbg !1908
}

; Function Attrs: uwtable
define linkonce_odr void @_ZNSt8_Rb_treeINSt7__cxx1112basic_stringIcSt11char_traitsIcESaIcEEESt4pairIKS5_iESt10_Select1stIS8_ESt4lessIS5_ESaIS8_EEC2Ev(%"class.std::_Rb_tree"* %this) unnamed_addr #2 comdat align 2 {
entry:
  %this.addr = alloca %"class.std::_Rb_tree"*, align 8
  store %"class.std::_Rb_tree"* %this, %"class.std::_Rb_tree"** %this.addr, align 8
  call void @llvm.dbg.declare(metadata %"class.std::_Rb_tree"** %this.addr, metadata !1909, metadata !1377), !dbg !1910
  %this1 = load %"class.std::_Rb_tree"*, %"class.std::_Rb_tree"** %this.addr
  %_M_impl = getelementptr inbounds %"class.std::_Rb_tree", %"class.std::_Rb_tree"* %this1, i32 0, i32 0, !dbg !1911
  call void @_ZNSt8_Rb_treeINSt7__cxx1112basic_stringIcSt11char_traitsIcESaIcEEESt4pairIKS5_iESt10_Select1stIS8_ESt4lessIS5_ESaIS8_EE13_Rb_tree_implISC_Lb0EEC2Ev(%"struct.std::_Rb_tree<std::__cxx11::basic_string<char>, std::pair<const std::__cxx11::basic_string<char>, int>, std::_Select1st<std::pair<const std::__cxx11::basic_string<char>, int> >, std::less<std::__cxx11::basic_string<char> >, std::allocator<std::pair<const std::__cxx11::basic_string<char>, int> > >::_Rb_tree_impl"* %_M_impl), !dbg !1911
  ret void, !dbg !1912
}

; Function Attrs: uwtable
define linkonce_odr void @_ZNSt8_Rb_treeINSt7__cxx1112basic_stringIcSt11char_traitsIcESaIcEEESt4pairIKS5_iESt10_Select1stIS8_ESt4lessIS5_ESaIS8_EE13_Rb_tree_implISC_Lb0EEC2Ev(%"struct.std::_Rb_tree<std::__cxx11::basic_string<char>, std::pair<const std::__cxx11::basic_string<char>, int>, std::_Select1st<std::pair<const std::__cxx11::basic_string<char>, int> >, std::less<std::__cxx11::basic_string<char> >, std::allocator<std::pair<const std::__cxx11::basic_string<char>, int> > >::_Rb_tree_impl"* %this) unnamed_addr #2 comdat align 2 {
entry:
  %this.addr = alloca %"struct.std::_Rb_tree<std::__cxx11::basic_string<char>, std::pair<const std::__cxx11::basic_string<char>, int>, std::_Select1st<std::pair<const std::__cxx11::basic_string<char>, int> >, std::less<std::__cxx11::basic_string<char> >, std::allocator<std::pair<const std::__cxx11::basic_string<char>, int> > >::_Rb_tree_impl"*, align 8
  %exn.slot = alloca i8*
  %ehselector.slot = alloca i32
  store %"struct.std::_Rb_tree<std::__cxx11::basic_string<char>, std::pair<const std::__cxx11::basic_string<char>, int>, std::_Select1st<std::pair<const std::__cxx11::basic_string<char>, int> >, std::less<std::__cxx11::basic_string<char> >, std::allocator<std::pair<const std::__cxx11::basic_string<char>, int> > >::_Rb_tree_impl"* %this, %"struct.std::_Rb_tree<std::__cxx11::basic_string<char>, std::pair<const std::__cxx11::basic_string<char>, int>, std::_Select1st<std::pair<const std::__cxx11::basic_string<char>, int> >, std::less<std::__cxx11::basic_string<char> >, std::allocator<std::pair<const std::__cxx11::basic_string<char>, int> > >::_Rb_tree_impl"** %this.addr, align 8
  call void @llvm.dbg.declare(metadata %"struct.std::_Rb_tree<std::__cxx11::basic_string<char>, std::pair<const std::__cxx11::basic_string<char>, int>, std::_Select1st<std::pair<const std::__cxx11::basic_string<char>, int> >, std::less<std::__cxx11::basic_string<char> >, std::allocator<std::pair<const std::__cxx11::basic_string<char>, int> > >::_Rb_tree_impl"** %this.addr, metadata !1913, metadata !1377), !dbg !1914
  %this1 = load %"struct.std::_Rb_tree<std::__cxx11::basic_string<char>, std::pair<const std::__cxx11::basic_string<char>, int>, std::_Select1st<std::pair<const std::__cxx11::basic_string<char>, int> >, std::less<std::__cxx11::basic_string<char> >, std::allocator<std::pair<const std::__cxx11::basic_string<char>, int> > >::_Rb_tree_impl"*, %"struct.std::_Rb_tree<std::__cxx11::basic_string<char>, std::pair<const std::__cxx11::basic_string<char>, int>, std::_Select1st<std::pair<const std::__cxx11::basic_string<char>, int> >, std::less<std::__cxx11::basic_string<char> >, std::allocator<std::pair<const std::__cxx11::basic_string<char>, int> > >::_Rb_tree_impl"** %this.addr
  %0 = bitcast %"struct.std::_Rb_tree<std::__cxx11::basic_string<char>, std::pair<const std::__cxx11::basic_string<char>, int>, std::_Select1st<std::pair<const std::__cxx11::basic_string<char>, int> >, std::less<std::__cxx11::basic_string<char> >, std::allocator<std::pair<const std::__cxx11::basic_string<char>, int> > >::_Rb_tree_impl"* %this1 to %"struct.std::less"*, !dbg !1915
  call void @_ZNSaISt13_Rb_tree_nodeISt4pairIKNSt7__cxx1112basic_stringIcSt11char_traitsIcESaIcEEEiEEEC2Ev(%"struct.std::less"* %0) #5, !dbg !1916
  %_M_key_compare = getelementptr inbounds %"struct.std::_Rb_tree<std::__cxx11::basic_string<char>, std::pair<const std::__cxx11::basic_string<char>, int>, std::_Select1st<std::pair<const std::__cxx11::basic_string<char>, int> >, std::less<std::__cxx11::basic_string<char> >, std::allocator<std::pair<const std::__cxx11::basic_string<char>, int> > >::_Rb_tree_impl", %"struct.std::_Rb_tree<std::__cxx11::basic_string<char>, std::pair<const std::__cxx11::basic_string<char>, int>, std::_Select1st<std::pair<const std::__cxx11::basic_string<char>, int> >, std::less<std::__cxx11::basic_string<char> >, std::allocator<std::pair<const std::__cxx11::basic_string<char>, int> > >::_Rb_tree_impl"* %this1, i32 0, i32 0, !dbg !1917
  %_M_header = getelementptr inbounds %"struct.std::_Rb_tree<std::__cxx11::basic_string<char>, std::pair<const std::__cxx11::basic_string<char>, int>, std::_Select1st<std::pair<const std::__cxx11::basic_string<char>, int> >, std::less<std::__cxx11::basic_string<char> >, std::allocator<std::pair<const std::__cxx11::basic_string<char>, int> > >::_Rb_tree_impl", %"struct.std::_Rb_tree<std::__cxx11::basic_string<char>, std::pair<const std::__cxx11::basic_string<char>, int>, std::_Select1st<std::pair<const std::__cxx11::basic_string<char>, int> >, std::less<std::__cxx11::basic_string<char> >, std::allocator<std::pair<const std::__cxx11::basic_string<char>, int> > >::_Rb_tree_impl"* %this1, i32 0, i32 1, !dbg !1918
  %1 = bitcast %"struct.std::_Rb_tree_node_base"* %_M_header to i8*, !dbg !1918
  call void @llvm.memset.p0i8.i64(i8* %1, i8 0, i64 32, i32 8, i1 false), !dbg !1918
  %_M_node_count = getelementptr inbounds %"struct.std::_Rb_tree<std::__cxx11::basic_string<char>, std::pair<const std::__cxx11::basic_string<char>, int>, std::_Select1st<std::pair<const std::__cxx11::basic_string<char>, int> >, std::less<std::__cxx11::basic_string<char> >, std::allocator<std::pair<const std::__cxx11::basic_string<char>, int> > >::_Rb_tree_impl", %"struct.std::_Rb_tree<std::__cxx11::basic_string<char>, std::pair<const std::__cxx11::basic_string<char>, int>, std::_Select1st<std::pair<const std::__cxx11::basic_string<char>, int> >, std::less<std::__cxx11::basic_string<char> >, std::allocator<std::pair<const std::__cxx11::basic_string<char>, int> > >::_Rb_tree_impl"* %this1, i32 0, i32 2, !dbg !1919
  store i64 0, i64* %_M_node_count, align 8, !dbg !1919
  invoke void @_ZNSt8_Rb_treeINSt7__cxx1112basic_stringIcSt11char_traitsIcESaIcEEESt4pairIKS5_iESt10_Select1stIS8_ESt4lessIS5_ESaIS8_EE13_Rb_tree_implISC_Lb0EE13_M_initializeEv(%"struct.std::_Rb_tree<std::__cxx11::basic_string<char>, std::pair<const std::__cxx11::basic_string<char>, int>, std::_Select1st<std::pair<const std::__cxx11::basic_string<char>, int> >, std::less<std::__cxx11::basic_string<char> >, std::allocator<std::pair<const std::__cxx11::basic_string<char>, int> > >::_Rb_tree_impl"* %this1)
          to label %invoke.cont unwind label %lpad, !dbg !1920

invoke.cont:                                      ; preds = %entry
  ret void, !dbg !1922

lpad:                                             ; preds = %entry
  %2 = landingpad { i8*, i32 } personality i8* bitcast (i32 (...)* @__gxx_personality_v0 to i8*)
          cleanup, !dbg !1924
  %3 = extractvalue { i8*, i32 } %2, 0, !dbg !1924
  store i8* %3, i8** %exn.slot, !dbg !1924
  %4 = extractvalue { i8*, i32 } %2, 1, !dbg !1924
  store i32 %4, i32* %ehselector.slot, !dbg !1924
  %5 = bitcast %"struct.std::_Rb_tree<std::__cxx11::basic_string<char>, std::pair<const std::__cxx11::basic_string<char>, int>, std::_Select1st<std::pair<const std::__cxx11::basic_string<char>, int> >, std::less<std::__cxx11::basic_string<char> >, std::allocator<std::pair<const std::__cxx11::basic_string<char>, int> > >::_Rb_tree_impl"* %this1 to %"struct.std::less"*, !dbg !1924
  call void @_ZNSaISt13_Rb_tree_nodeISt4pairIKNSt7__cxx1112basic_stringIcSt11char_traitsIcESaIcEEEiEEED2Ev(%"struct.std::less"* %5) #5, !dbg !1924
  br label %eh.resume, !dbg !1924

eh.resume:                                        ; preds = %lpad
  %exn = load i8*, i8** %exn.slot, !dbg !1926
  %sel = load i32, i32* %ehselector.slot, !dbg !1926
  %lpad.val = insertvalue { i8*, i32 } undef, i8* %exn, 0, !dbg !1926
  %lpad.val2 = insertvalue { i8*, i32 } %lpad.val, i32 %sel, 1, !dbg !1926
  resume { i8*, i32 } %lpad.val2, !dbg !1926
}

; Function Attrs: nounwind uwtable
define linkonce_odr void @_ZNSaISt13_Rb_tree_nodeISt4pairIKNSt7__cxx1112basic_stringIcSt11char_traitsIcESaIcEEEiEEEC2Ev(%"struct.std::less"* %this) unnamed_addr #0 comdat align 2 {
entry:
  %this.addr = alloca %"struct.std::less"*, align 8
  store %"struct.std::less"* %this, %"struct.std::less"** %this.addr, align 8
  call void @llvm.dbg.declare(metadata %"struct.std::less"** %this.addr, metadata !1928, metadata !1377), !dbg !1929
  %this1 = load %"struct.std::less"*, %"struct.std::less"** %this.addr
  %0 = bitcast %"struct.std::less"* %this1 to %"struct.std::less"*, !dbg !1930
  call void @_ZN9__gnu_cxx13new_allocatorISt13_Rb_tree_nodeISt4pairIKNSt7__cxx1112basic_stringIcSt11char_traitsIcESaIcEEEiEEEC2Ev(%"struct.std::less"* %0) #5, !dbg !1931
  ret void, !dbg !1932
}

; Function Attrs: nounwind uwtable
define linkonce_odr void @_ZN9__gnu_cxx13new_allocatorISt13_Rb_tree_nodeISt4pairIKNSt7__cxx1112basic_stringIcSt11char_traitsIcESaIcEEEiEEEC2Ev(%"struct.std::less"* %this) unnamed_addr #0 comdat align 2 {
entry:
  %this.addr = alloca %"struct.std::less"*, align 8
  store %"struct.std::less"* %this, %"struct.std::less"** %this.addr, align 8
  call void @llvm.dbg.declare(metadata %"struct.std::less"** %this.addr, metadata !1933, metadata !1377), !dbg !1934
  %this1 = load %"struct.std::less"*, %"struct.std::less"** %this.addr
  ret void, !dbg !1935
}

; Function Attrs: nounwind uwtable
define linkonce_odr void @_ZNSt8_Rb_treeINSt7__cxx1112basic_stringIcSt11char_traitsIcESaIcEEESt4pairIKS5_iESt10_Select1stIS8_ESt4lessIS5_ESaIS8_EE13_Rb_tree_implISC_Lb0EE13_M_initializeEv(%"struct.std::_Rb_tree<std::__cxx11::basic_string<char>, std::pair<const std::__cxx11::basic_string<char>, int>, std::_Select1st<std::pair<const std::__cxx11::basic_string<char>, int> >, std::less<std::__cxx11::basic_string<char> >, std::allocator<std::pair<const std::__cxx11::basic_string<char>, int> > >::_Rb_tree_impl"* %this) #0 comdat align 2 {
entry:
  %this.addr = alloca %"struct.std::_Rb_tree<std::__cxx11::basic_string<char>, std::pair<const std::__cxx11::basic_string<char>, int>, std::_Select1st<std::pair<const std::__cxx11::basic_string<char>, int> >, std::less<std::__cxx11::basic_string<char> >, std::allocator<std::pair<const std::__cxx11::basic_string<char>, int> > >::_Rb_tree_impl"*, align 8
  store %"struct.std::_Rb_tree<std::__cxx11::basic_string<char>, std::pair<const std::__cxx11::basic_string<char>, int>, std::_Select1st<std::pair<const std::__cxx11::basic_string<char>, int> >, std::less<std::__cxx11::basic_string<char> >, std::allocator<std::pair<const std::__cxx11::basic_string<char>, int> > >::_Rb_tree_impl"* %this, %"struct.std::_Rb_tree<std::__cxx11::basic_string<char>, std::pair<const std::__cxx11::basic_string<char>, int>, std::_Select1st<std::pair<const std::__cxx11::basic_string<char>, int> >, std::less<std::__cxx11::basic_string<char> >, std::allocator<std::pair<const std::__cxx11::basic_string<char>, int> > >::_Rb_tree_impl"** %this.addr, align 8
  call void @llvm.dbg.declare(metadata %"struct.std::_Rb_tree<std::__cxx11::basic_string<char>, std::pair<const std::__cxx11::basic_string<char>, int>, std::_Select1st<std::pair<const std::__cxx11::basic_string<char>, int> >, std::less<std::__cxx11::basic_string<char> >, std::allocator<std::pair<const std::__cxx11::basic_string<char>, int> > >::_Rb_tree_impl"** %this.addr, metadata !1936, metadata !1377), !dbg !1937
  %this1 = load %"struct.std::_Rb_tree<std::__cxx11::basic_string<char>, std::pair<const std::__cxx11::basic_string<char>, int>, std::_Select1st<std::pair<const std::__cxx11::basic_string<char>, int> >, std::less<std::__cxx11::basic_string<char> >, std::allocator<std::pair<const std::__cxx11::basic_string<char>, int> > >::_Rb_tree_impl"*, %"struct.std::_Rb_tree<std::__cxx11::basic_string<char>, std::pair<const std::__cxx11::basic_string<char>, int>, std::_Select1st<std::pair<const std::__cxx11::basic_string<char>, int> >, std::less<std::__cxx11::basic_string<char> >, std::allocator<std::pair<const std::__cxx11::basic_string<char>, int> > >::_Rb_tree_impl"** %this.addr
  %_M_header = getelementptr inbounds %"struct.std::_Rb_tree<std::__cxx11::basic_string<char>, std::pair<const std::__cxx11::basic_string<char>, int>, std::_Select1st<std::pair<const std::__cxx11::basic_string<char>, int> >, std::less<std::__cxx11::basic_string<char> >, std::allocator<std::pair<const std::__cxx11::basic_string<char>, int> > >::_Rb_tree_impl", %"struct.std::_Rb_tree<std::__cxx11::basic_string<char>, std::pair<const std::__cxx11::basic_string<char>, int>, std::_Select1st<std::pair<const std::__cxx11::basic_string<char>, int> >, std::less<std::__cxx11::basic_string<char> >, std::allocator<std::pair<const std::__cxx11::basic_string<char>, int> > >::_Rb_tree_impl"* %this1, i32 0, i32 1, !dbg !1938
  %_M_color = getelementptr inbounds %"struct.std::_Rb_tree_node_base", %"struct.std::_Rb_tree_node_base"* %_M_header, i32 0, i32 0, !dbg !1939
  store i32 0, i32* %_M_color, align 4, !dbg !1940
  %_M_header2 = getelementptr inbounds %"struct.std::_Rb_tree<std::__cxx11::basic_string<char>, std::pair<const std::__cxx11::basic_string<char>, int>, std::_Select1st<std::pair<const std::__cxx11::basic_string<char>, int> >, std::less<std::__cxx11::basic_string<char> >, std::allocator<std::pair<const std::__cxx11::basic_string<char>, int> > >::_Rb_tree_impl", %"struct.std::_Rb_tree<std::__cxx11::basic_string<char>, std::pair<const std::__cxx11::basic_string<char>, int>, std::_Select1st<std::pair<const std::__cxx11::basic_string<char>, int> >, std::less<std::__cxx11::basic_string<char> >, std::allocator<std::pair<const std::__cxx11::basic_string<char>, int> > >::_Rb_tree_impl"* %this1, i32 0, i32 1, !dbg !1941
  %_M_parent = getelementptr inbounds %"struct.std::_Rb_tree_node_base", %"struct.std::_Rb_tree_node_base"* %_M_header2, i32 0, i32 1, !dbg !1942
  store %"struct.std::_Rb_tree_node_base"* null, %"struct.std::_Rb_tree_node_base"** %_M_parent, align 8, !dbg !1943
  %_M_header3 = getelementptr inbounds %"struct.std::_Rb_tree<std::__cxx11::basic_string<char>, std::pair<const std::__cxx11::basic_string<char>, int>, std::_Select1st<std::pair<const std::__cxx11::basic_string<char>, int> >, std::less<std::__cxx11::basic_string<char> >, std::allocator<std::pair<const std::__cxx11::basic_string<char>, int> > >::_Rb_tree_impl", %"struct.std::_Rb_tree<std::__cxx11::basic_string<char>, std::pair<const std::__cxx11::basic_string<char>, int>, std::_Select1st<std::pair<const std::__cxx11::basic_string<char>, int> >, std::less<std::__cxx11::basic_string<char> >, std::allocator<std::pair<const std::__cxx11::basic_string<char>, int> > >::_Rb_tree_impl"* %this1, i32 0, i32 1, !dbg !1944
  %_M_header4 = getelementptr inbounds %"struct.std::_Rb_tree<std::__cxx11::basic_string<char>, std::pair<const std::__cxx11::basic_string<char>, int>, std::_Select1st<std::pair<const std::__cxx11::basic_string<char>, int> >, std::less<std::__cxx11::basic_string<char> >, std::allocator<std::pair<const std::__cxx11::basic_string<char>, int> > >::_Rb_tree_impl", %"struct.std::_Rb_tree<std::__cxx11::basic_string<char>, std::pair<const std::__cxx11::basic_string<char>, int>, std::_Select1st<std::pair<const std::__cxx11::basic_string<char>, int> >, std::less<std::__cxx11::basic_string<char> >, std::allocator<std::pair<const std::__cxx11::basic_string<char>, int> > >::_Rb_tree_impl"* %this1, i32 0, i32 1, !dbg !1945
  %_M_left = getelementptr inbounds %"struct.std::_Rb_tree_node_base", %"struct.std::_Rb_tree_node_base"* %_M_header4, i32 0, i32 2, !dbg !1946
  store %"struct.std::_Rb_tree_node_base"* %_M_header3, %"struct.std::_Rb_tree_node_base"** %_M_left, align 8, !dbg !1947
  %_M_header5 = getelementptr inbounds %"struct.std::_Rb_tree<std::__cxx11::basic_string<char>, std::pair<const std::__cxx11::basic_string<char>, int>, std::_Select1st<std::pair<const std::__cxx11::basic_string<char>, int> >, std::less<std::__cxx11::basic_string<char> >, std::allocator<std::pair<const std::__cxx11::basic_string<char>, int> > >::_Rb_tree_impl", %"struct.std::_Rb_tree<std::__cxx11::basic_string<char>, std::pair<const std::__cxx11::basic_string<char>, int>, std::_Select1st<std::pair<const std::__cxx11::basic_string<char>, int> >, std::less<std::__cxx11::basic_string<char> >, std::allocator<std::pair<const std::__cxx11::basic_string<char>, int> > >::_Rb_tree_impl"* %this1, i32 0, i32 1, !dbg !1948
  %_M_header6 = getelementptr inbounds %"struct.std::_Rb_tree<std::__cxx11::basic_string<char>, std::pair<const std::__cxx11::basic_string<char>, int>, std::_Select1st<std::pair<const std::__cxx11::basic_string<char>, int> >, std::less<std::__cxx11::basic_string<char> >, std::allocator<std::pair<const std::__cxx11::basic_string<char>, int> > >::_Rb_tree_impl", %"struct.std::_Rb_tree<std::__cxx11::basic_string<char>, std::pair<const std::__cxx11::basic_string<char>, int>, std::_Select1st<std::pair<const std::__cxx11::basic_string<char>, int> >, std::less<std::__cxx11::basic_string<char> >, std::allocator<std::pair<const std::__cxx11::basic_string<char>, int> > >::_Rb_tree_impl"* %this1, i32 0, i32 1, !dbg !1949
  %_M_right = getelementptr inbounds %"struct.std::_Rb_tree_node_base", %"struct.std::_Rb_tree_node_base"* %_M_header6, i32 0, i32 3, !dbg !1950
  store %"struct.std::_Rb_tree_node_base"* %_M_header5, %"struct.std::_Rb_tree_node_base"** %_M_right, align 8, !dbg !1951
  ret void, !dbg !1952
}

; Function Attrs: uwtable
define linkonce_odr %"struct.std::_Rb_tree_node_base"* @_ZNSt8_Rb_treeINSt7__cxx1112basic_stringIcSt11char_traitsIcESaIcEEESt4pairIKS5_iESt10_Select1stIS8_ESt4lessIS5_ESaIS8_EE4findERS7_(%"class.std::_Rb_tree"* %this, %"class.std::__cxx11::basic_string"* dereferenceable(32) %__k) #2 comdat align 2 {
entry:
  %retval = alloca %"struct.std::_Rb_tree_iterator", align 8
  %this.addr = alloca %"class.std::_Rb_tree"*, align 8
  %__k.addr = alloca %"class.std::__cxx11::basic_string"*, align 8
  %__j = alloca %"struct.std::_Rb_tree_iterator", align 8
  %ref.tmp = alloca %"struct.std::_Rb_tree_iterator", align 8
  store %"class.std::_Rb_tree"* %this, %"class.std::_Rb_tree"** %this.addr, align 8
  call void @llvm.dbg.declare(metadata %"class.std::_Rb_tree"** %this.addr, metadata !1953, metadata !1377), !dbg !1954
  store %"class.std::__cxx11::basic_string"* %__k, %"class.std::__cxx11::basic_string"** %__k.addr, align 8
  call void @llvm.dbg.declare(metadata %"class.std::__cxx11::basic_string"** %__k.addr, metadata !1955, metadata !1377), !dbg !1956
  %this1 = load %"class.std::_Rb_tree"*, %"class.std::_Rb_tree"** %this.addr
  call void @llvm.dbg.declare(metadata %"struct.std::_Rb_tree_iterator"* %__j, metadata !1957, metadata !1377), !dbg !1958
  %call = call %"struct.std::_Rb_tree_node"* @_ZNSt8_Rb_treeINSt7__cxx1112basic_stringIcSt11char_traitsIcESaIcEEESt4pairIKS5_iESt10_Select1stIS8_ESt4lessIS5_ESaIS8_EE8_M_beginEv(%"class.std::_Rb_tree"* %this1), !dbg !1959
  %call2 = call %"struct.std::_Rb_tree_node"* @_ZNSt8_Rb_treeINSt7__cxx1112basic_stringIcSt11char_traitsIcESaIcEEESt4pairIKS5_iESt10_Select1stIS8_ESt4lessIS5_ESaIS8_EE6_M_endEv(%"class.std::_Rb_tree"* %this1), !dbg !1960
  %0 = load %"class.std::__cxx11::basic_string"*, %"class.std::__cxx11::basic_string"** %__k.addr, align 8, !dbg !1961
  %call3 = call %"struct.std::_Rb_tree_node_base"* @_ZNSt8_Rb_treeINSt7__cxx1112basic_stringIcSt11char_traitsIcESaIcEEESt4pairIKS5_iESt10_Select1stIS8_ESt4lessIS5_ESaIS8_EE14_M_lower_boundEPSt13_Rb_tree_nodeIS8_ESH_RS7_(%"class.std::_Rb_tree"* %this1, %"struct.std::_Rb_tree_node"* %call, %"struct.std::_Rb_tree_node"* %call2, %"class.std::__cxx11::basic_string"* dereferenceable(32) %0), !dbg !1962
  %coerce.dive = getelementptr %"struct.std::_Rb_tree_iterator", %"struct.std::_Rb_tree_iterator"* %__j, i32 0, i32 0, !dbg !1962
  store %"struct.std::_Rb_tree_node_base"* %call3, %"struct.std::_Rb_tree_node_base"** %coerce.dive, !dbg !1962
  %call4 = call %"struct.std::_Rb_tree_node_base"* @_ZNSt8_Rb_treeINSt7__cxx1112basic_stringIcSt11char_traitsIcESaIcEEESt4pairIKS5_iESt10_Select1stIS8_ESt4lessIS5_ESaIS8_EE3endEv(%"class.std::_Rb_tree"* %this1), !dbg !1963
  %coerce.dive5 = getelementptr %"struct.std::_Rb_tree_iterator", %"struct.std::_Rb_tree_iterator"* %ref.tmp, i32 0, i32 0, !dbg !1963
  store %"struct.std::_Rb_tree_node_base"* %call4, %"struct.std::_Rb_tree_node_base"** %coerce.dive5, !dbg !1963
  %call6 = call zeroext i1 @_ZNKSt17_Rb_tree_iteratorISt4pairIKNSt7__cxx1112basic_stringIcSt11char_traitsIcESaIcEEEiEEeqERKS9_(%"struct.std::_Rb_tree_iterator"* %__j, %"struct.std::_Rb_tree_iterator"* dereferenceable(8) %ref.tmp), !dbg !1964
  br i1 %call6, label %cond.true, label %lor.lhs.false, !dbg !1965

lor.lhs.false:                                    ; preds = %entry
  %_M_impl = getelementptr inbounds %"class.std::_Rb_tree", %"class.std::_Rb_tree"* %this1, i32 0, i32 0, !dbg !1966
  %_M_key_compare = getelementptr inbounds %"struct.std::_Rb_tree<std::__cxx11::basic_string<char>, std::pair<const std::__cxx11::basic_string<char>, int>, std::_Select1st<std::pair<const std::__cxx11::basic_string<char>, int> >, std::less<std::__cxx11::basic_string<char> >, std::allocator<std::pair<const std::__cxx11::basic_string<char>, int> > >::_Rb_tree_impl", %"struct.std::_Rb_tree<std::__cxx11::basic_string<char>, std::pair<const std::__cxx11::basic_string<char>, int>, std::_Select1st<std::pair<const std::__cxx11::basic_string<char>, int> >, std::less<std::__cxx11::basic_string<char> >, std::allocator<std::pair<const std::__cxx11::basic_string<char>, int> > >::_Rb_tree_impl"* %_M_impl, i32 0, i32 0, !dbg !1968
  %1 = load %"class.std::__cxx11::basic_string"*, %"class.std::__cxx11::basic_string"** %__k.addr, align 8, !dbg !1969
  %_M_node = getelementptr inbounds %"struct.std::_Rb_tree_iterator", %"struct.std::_Rb_tree_iterator"* %__j, i32 0, i32 0, !dbg !1970
  %2 = load %"struct.std::_Rb_tree_node_base"*, %"struct.std::_Rb_tree_node_base"** %_M_node, align 8, !dbg !1970
  %call7 = call dereferenceable(32) %"class.std::__cxx11::basic_string"* @_ZNSt8_Rb_treeINSt7__cxx1112basic_stringIcSt11char_traitsIcESaIcEEESt4pairIKS5_iESt10_Select1stIS8_ESt4lessIS5_ESaIS8_EE6_S_keyEPKSt18_Rb_tree_node_base(%"struct.std::_Rb_tree_node_base"* %2), !dbg !1971
  %call8 = call zeroext i1 @_ZNKSt4lessINSt7__cxx1112basic_stringIcSt11char_traitsIcESaIcEEEEclERKS5_S8_(%"struct.std::less"* %_M_key_compare, %"class.std::__cxx11::basic_string"* dereferenceable(32) %1, %"class.std::__cxx11::basic_string"* dereferenceable(32) %call7), !dbg !1972
  br i1 %call8, label %cond.true, label %cond.false, !dbg !1973

cond.true:                                        ; preds = %lor.lhs.false, %entry
  %call9 = call %"struct.std::_Rb_tree_node_base"* @_ZNSt8_Rb_treeINSt7__cxx1112basic_stringIcSt11char_traitsIcESaIcEEESt4pairIKS5_iESt10_Select1stIS8_ESt4lessIS5_ESaIS8_EE3endEv(%"class.std::_Rb_tree"* %this1), !dbg !1974
  %coerce.dive10 = getelementptr %"struct.std::_Rb_tree_iterator", %"struct.std::_Rb_tree_iterator"* %retval, i32 0, i32 0, !dbg !1974
  store %"struct.std::_Rb_tree_node_base"* %call9, %"struct.std::_Rb_tree_node_base"** %coerce.dive10, !dbg !1974
  br label %cond.end, !dbg !1973

cond.false:                                       ; preds = %lor.lhs.false
  %3 = bitcast %"struct.std::_Rb_tree_iterator"* %retval to i8*, !dbg !1975
  %4 = bitcast %"struct.std::_Rb_tree_iterator"* %__j to i8*, !dbg !1975
  call void @llvm.memcpy.p0i8.p0i8.i64(i8* %3, i8* %4, i64 8, i32 8, i1 false), !dbg !1975
  br label %cond.end, !dbg !1973

cond.end:                                         ; preds = %cond.false, %cond.true
  %coerce.dive11 = getelementptr %"struct.std::_Rb_tree_iterator", %"struct.std::_Rb_tree_iterator"* %retval, i32 0, i32 0, !dbg !1976
  %5 = load %"struct.std::_Rb_tree_node_base"*, %"struct.std::_Rb_tree_node_base"** %coerce.dive11, !dbg !1976
  ret %"struct.std::_Rb_tree_node_base"* %5, !dbg !1976
}

; Function Attrs: uwtable
define linkonce_odr %"struct.std::_Rb_tree_node_base"* @_ZNSt8_Rb_treeINSt7__cxx1112basic_stringIcSt11char_traitsIcESaIcEEESt4pairIKS5_iESt10_Select1stIS8_ESt4lessIS5_ESaIS8_EE14_M_lower_boundEPSt13_Rb_tree_nodeIS8_ESH_RS7_(%"class.std::_Rb_tree"* %this, %"struct.std::_Rb_tree_node"* %__x, %"struct.std::_Rb_tree_node"* %__y, %"class.std::__cxx11::basic_string"* dereferenceable(32) %__k) #2 comdat align 2 {
entry:
  %retval = alloca %"struct.std::_Rb_tree_iterator", align 8
  %this.addr = alloca %"class.std::_Rb_tree"*, align 8
  %__x.addr = alloca %"struct.std::_Rb_tree_node"*, align 8
  %__y.addr = alloca %"struct.std::_Rb_tree_node"*, align 8
  %__k.addr = alloca %"class.std::__cxx11::basic_string"*, align 8
  store %"class.std::_Rb_tree"* %this, %"class.std::_Rb_tree"** %this.addr, align 8
  call void @llvm.dbg.declare(metadata %"class.std::_Rb_tree"** %this.addr, metadata !1978, metadata !1377), !dbg !1979
  store %"struct.std::_Rb_tree_node"* %__x, %"struct.std::_Rb_tree_node"** %__x.addr, align 8
  call void @llvm.dbg.declare(metadata %"struct.std::_Rb_tree_node"** %__x.addr, metadata !1980, metadata !1377), !dbg !1981
  store %"struct.std::_Rb_tree_node"* %__y, %"struct.std::_Rb_tree_node"** %__y.addr, align 8
  call void @llvm.dbg.declare(metadata %"struct.std::_Rb_tree_node"** %__y.addr, metadata !1982, metadata !1377), !dbg !1983
  store %"class.std::__cxx11::basic_string"* %__k, %"class.std::__cxx11::basic_string"** %__k.addr, align 8
  call void @llvm.dbg.declare(metadata %"class.std::__cxx11::basic_string"** %__k.addr, metadata !1984, metadata !1377), !dbg !1985
  %this1 = load %"class.std::_Rb_tree"*, %"class.std::_Rb_tree"** %this.addr
  br label %while.cond, !dbg !1986

while.cond:                                       ; preds = %if.end, %entry
  %0 = load %"struct.std::_Rb_tree_node"*, %"struct.std::_Rb_tree_node"** %__x.addr, align 8, !dbg !1987
  %cmp = icmp ne %"struct.std::_Rb_tree_node"* %0, null, !dbg !1990
  br i1 %cmp, label %while.body, label %while.end, !dbg !1986

while.body:                                       ; preds = %while.cond
  %_M_impl = getelementptr inbounds %"class.std::_Rb_tree", %"class.std::_Rb_tree"* %this1, i32 0, i32 0, !dbg !1991
  %_M_key_compare = getelementptr inbounds %"struct.std::_Rb_tree<std::__cxx11::basic_string<char>, std::pair<const std::__cxx11::basic_string<char>, int>, std::_Select1st<std::pair<const std::__cxx11::basic_string<char>, int> >, std::less<std::__cxx11::basic_string<char> >, std::allocator<std::pair<const std::__cxx11::basic_string<char>, int> > >::_Rb_tree_impl", %"struct.std::_Rb_tree<std::__cxx11::basic_string<char>, std::pair<const std::__cxx11::basic_string<char>, int>, std::_Select1st<std::pair<const std::__cxx11::basic_string<char>, int> >, std::less<std::__cxx11::basic_string<char> >, std::allocator<std::pair<const std::__cxx11::basic_string<char>, int> > >::_Rb_tree_impl"* %_M_impl, i32 0, i32 0, !dbg !1993
  %1 = load %"struct.std::_Rb_tree_node"*, %"struct.std::_Rb_tree_node"** %__x.addr, align 8, !dbg !1994
  %call = call dereferenceable(32) %"class.std::__cxx11::basic_string"* @_ZNSt8_Rb_treeINSt7__cxx1112basic_stringIcSt11char_traitsIcESaIcEEESt4pairIKS5_iESt10_Select1stIS8_ESt4lessIS5_ESaIS8_EE6_S_keyEPKSt13_Rb_tree_nodeIS8_E(%"struct.std::_Rb_tree_node"* %1), !dbg !1995
  %2 = load %"class.std::__cxx11::basic_string"*, %"class.std::__cxx11::basic_string"** %__k.addr, align 8, !dbg !1996
  %call2 = call zeroext i1 @_ZNKSt4lessINSt7__cxx1112basic_stringIcSt11char_traitsIcESaIcEEEEclERKS5_S8_(%"struct.std::less"* %_M_key_compare, %"class.std::__cxx11::basic_string"* dereferenceable(32) %call, %"class.std::__cxx11::basic_string"* dereferenceable(32) %2), !dbg !1991
  br i1 %call2, label %if.else, label %if.then, !dbg !1997

if.then:                                          ; preds = %while.body
  %3 = load %"struct.std::_Rb_tree_node"*, %"struct.std::_Rb_tree_node"** %__x.addr, align 8, !dbg !1998
  store %"struct.std::_Rb_tree_node"* %3, %"struct.std::_Rb_tree_node"** %__y.addr, align 8, !dbg !1999
  %4 = load %"struct.std::_Rb_tree_node"*, %"struct.std::_Rb_tree_node"** %__x.addr, align 8, !dbg !2000
  %5 = bitcast %"struct.std::_Rb_tree_node"* %4 to %"struct.std::_Rb_tree_node_base"*, !dbg !2000
  %call3 = call %"struct.std::_Rb_tree_node"* @_ZNSt8_Rb_treeINSt7__cxx1112basic_stringIcSt11char_traitsIcESaIcEEESt4pairIKS5_iESt10_Select1stIS8_ESt4lessIS5_ESaIS8_EE7_S_leftEPSt18_Rb_tree_node_base(%"struct.std::_Rb_tree_node_base"* %5), !dbg !2001
  store %"struct.std::_Rb_tree_node"* %call3, %"struct.std::_Rb_tree_node"** %__x.addr, align 8, !dbg !2002
  br label %if.end, !dbg !2003

if.else:                                          ; preds = %while.body
  %6 = load %"struct.std::_Rb_tree_node"*, %"struct.std::_Rb_tree_node"** %__x.addr, align 8, !dbg !2004
  %7 = bitcast %"struct.std::_Rb_tree_node"* %6 to %"struct.std::_Rb_tree_node_base"*, !dbg !2004
  %call4 = call %"struct.std::_Rb_tree_node"* @_ZNSt8_Rb_treeINSt7__cxx1112basic_stringIcSt11char_traitsIcESaIcEEESt4pairIKS5_iESt10_Select1stIS8_ESt4lessIS5_ESaIS8_EE8_S_rightEPSt18_Rb_tree_node_base(%"struct.std::_Rb_tree_node_base"* %7), !dbg !2005
  store %"struct.std::_Rb_tree_node"* %call4, %"struct.std::_Rb_tree_node"** %__x.addr, align 8, !dbg !2006
  br label %if.end

if.end:                                           ; preds = %if.else, %if.then
  br label %while.cond, !dbg !1986

while.end:                                        ; preds = %while.cond
  %8 = load %"struct.std::_Rb_tree_node"*, %"struct.std::_Rb_tree_node"** %__y.addr, align 8, !dbg !2007
  %9 = bitcast %"struct.std::_Rb_tree_node"* %8 to %"struct.std::_Rb_tree_node_base"*, !dbg !2007
  call void @_ZNSt17_Rb_tree_iteratorISt4pairIKNSt7__cxx1112basic_stringIcSt11char_traitsIcESaIcEEEiEEC2EPSt18_Rb_tree_node_base(%"struct.std::_Rb_tree_iterator"* %retval, %"struct.std::_Rb_tree_node_base"* %9), !dbg !2008
  %coerce.dive = getelementptr %"struct.std::_Rb_tree_iterator", %"struct.std::_Rb_tree_iterator"* %retval, i32 0, i32 0, !dbg !2009
  %10 = load %"struct.std::_Rb_tree_node_base"*, %"struct.std::_Rb_tree_node_base"** %coerce.dive, !dbg !2009
  ret %"struct.std::_Rb_tree_node_base"* %10, !dbg !2009
}

; Function Attrs: uwtable
define linkonce_odr dereferenceable(32) %"class.std::__cxx11::basic_string"* @_ZNSt8_Rb_treeINSt7__cxx1112basic_stringIcSt11char_traitsIcESaIcEEESt4pairIKS5_iESt10_Select1stIS8_ESt4lessIS5_ESaIS8_EE6_S_keyEPKSt13_Rb_tree_nodeIS8_E(%"struct.std::_Rb_tree_node"* %__x) #2 comdat align 2 {
entry:
  %__x.addr = alloca %"struct.std::_Rb_tree_node"*, align 8
  %tmp = alloca %"struct.std::less", align 1
  store %"struct.std::_Rb_tree_node"* %__x, %"struct.std::_Rb_tree_node"** %__x.addr, align 8
  call void @llvm.dbg.declare(metadata %"struct.std::_Rb_tree_node"** %__x.addr, metadata !2010, metadata !1377), !dbg !2011
  %0 = load %"struct.std::_Rb_tree_node"*, %"struct.std::_Rb_tree_node"** %__x.addr, align 8, !dbg !2012
  %call = call dereferenceable(40) %"struct.std::pair"* @_ZNSt8_Rb_treeINSt7__cxx1112basic_stringIcSt11char_traitsIcESaIcEEESt4pairIKS5_iESt10_Select1stIS8_ESt4lessIS5_ESaIS8_EE8_S_valueEPKSt13_Rb_tree_nodeIS8_E(%"struct.std::_Rb_tree_node"* %0), !dbg !2013
  %call1 = call dereferenceable(32) %"class.std::__cxx11::basic_string"* @_ZNKSt10_Select1stISt4pairIKNSt7__cxx1112basic_stringIcSt11char_traitsIcESaIcEEEiEEclERKS8_(%"struct.std::less"* %tmp, %"struct.std::pair"* dereferenceable(40) %call), !dbg !2014
  ret %"class.std::__cxx11::basic_string"* %call1, !dbg !2015
}

; Function Attrs: nounwind uwtable
define linkonce_odr dereferenceable(32) %"class.std::__cxx11::basic_string"* @_ZNKSt10_Select1stISt4pairIKNSt7__cxx1112basic_stringIcSt11char_traitsIcESaIcEEEiEEclERKS8_(%"struct.std::less"* %this, %"struct.std::pair"* dereferenceable(40) %__x) #0 comdat align 2 {
entry:
  %this.addr = alloca %"struct.std::less"*, align 8
  %__x.addr = alloca %"struct.std::pair"*, align 8
  store %"struct.std::less"* %this, %"struct.std::less"** %this.addr, align 8
  call void @llvm.dbg.declare(metadata %"struct.std::less"** %this.addr, metadata !2016, metadata !1377), !dbg !2018
  store %"struct.std::pair"* %__x, %"struct.std::pair"** %__x.addr, align 8
  call void @llvm.dbg.declare(metadata %"struct.std::pair"** %__x.addr, metadata !2019, metadata !1377), !dbg !2020
  %this1 = load %"struct.std::less"*, %"struct.std::less"** %this.addr
  %0 = load %"struct.std::pair"*, %"struct.std::pair"** %__x.addr, align 8, !dbg !2021
  %first = getelementptr inbounds %"struct.std::pair", %"struct.std::pair"* %0, i32 0, i32 0, !dbg !2022
  ret %"class.std::__cxx11::basic_string"* %first, !dbg !2023
}

; Function Attrs: uwtable
define linkonce_odr dereferenceable(40) %"struct.std::pair"* @_ZNSt8_Rb_treeINSt7__cxx1112basic_stringIcSt11char_traitsIcESaIcEEESt4pairIKS5_iESt10_Select1stIS8_ESt4lessIS5_ESaIS8_EE8_S_valueEPKSt13_Rb_tree_nodeIS8_E(%"struct.std::_Rb_tree_node"* %__x) #2 comdat align 2 {
entry:
  %__x.addr = alloca %"struct.std::_Rb_tree_node"*, align 8
  store %"struct.std::_Rb_tree_node"* %__x, %"struct.std::_Rb_tree_node"** %__x.addr, align 8
  call void @llvm.dbg.declare(metadata %"struct.std::_Rb_tree_node"** %__x.addr, metadata !2024, metadata !1377), !dbg !2025
  %0 = load %"struct.std::_Rb_tree_node"*, %"struct.std::_Rb_tree_node"** %__x.addr, align 8, !dbg !2026
  %call = call %"struct.std::pair"* @_ZNKSt13_Rb_tree_nodeISt4pairIKNSt7__cxx1112basic_stringIcSt11char_traitsIcESaIcEEEiEE9_M_valptrEv(%"struct.std::_Rb_tree_node"* %0), !dbg !2026
  ret %"struct.std::pair"* %call, !dbg !2027
}

; Function Attrs: uwtable
define linkonce_odr %"struct.std::pair"* @_ZNKSt13_Rb_tree_nodeISt4pairIKNSt7__cxx1112basic_stringIcSt11char_traitsIcESaIcEEEiEE9_M_valptrEv(%"struct.std::_Rb_tree_node"* %this) #2 comdat align 2 {
entry:
  %this.addr = alloca %"struct.std::_Rb_tree_node"*, align 8
  store %"struct.std::_Rb_tree_node"* %this, %"struct.std::_Rb_tree_node"** %this.addr, align 8
  call void @llvm.dbg.declare(metadata %"struct.std::_Rb_tree_node"** %this.addr, metadata !2028, metadata !1377), !dbg !2029
  %this1 = load %"struct.std::_Rb_tree_node"*, %"struct.std::_Rb_tree_node"** %this.addr
  %_M_value_field = getelementptr inbounds %"struct.std::_Rb_tree_node", %"struct.std::_Rb_tree_node"* %this1, i32 0, i32 1, !dbg !2030
  %call = call %"struct.std::pair"* @_ZSt11__addressofIKSt4pairIKNSt7__cxx1112basic_stringIcSt11char_traitsIcESaIcEEEiEEPT_RSA_(%"struct.std::pair"* dereferenceable(40) %_M_value_field), !dbg !2031
  ret %"struct.std::pair"* %call, !dbg !2032
}

; Function Attrs: inlinehint nounwind uwtable
define linkonce_odr %"struct.std::pair"* @_ZSt11__addressofIKSt4pairIKNSt7__cxx1112basic_stringIcSt11char_traitsIcESaIcEEEiEEPT_RSA_(%"struct.std::pair"* dereferenceable(40) %__r) #12 comdat {
entry:
  %__r.addr = alloca %"struct.std::pair"*, align 8
  store %"struct.std::pair"* %__r, %"struct.std::pair"** %__r.addr, align 8
  call void @llvm.dbg.declare(metadata %"struct.std::pair"** %__r.addr, metadata !2033, metadata !1377), !dbg !2034
  %0 = load %"struct.std::pair"*, %"struct.std::pair"** %__r.addr, align 8, !dbg !2035
  %1 = bitcast %"struct.std::pair"* %0 to i8*, !dbg !2036
  %2 = bitcast i8* %1 to %"struct.std::pair"*, !dbg !2037
  ret %"struct.std::pair"* %2, !dbg !2038
}

; Function Attrs: nounwind uwtable
define linkonce_odr void @_ZNSt17_Rb_tree_iteratorISt4pairIKNSt7__cxx1112basic_stringIcSt11char_traitsIcESaIcEEEiEEC2EPSt18_Rb_tree_node_base(%"struct.std::_Rb_tree_iterator"* %this, %"struct.std::_Rb_tree_node_base"* %__x) unnamed_addr #0 comdat align 2 {
entry:
  %this.addr = alloca %"struct.std::_Rb_tree_iterator"*, align 8
  %__x.addr = alloca %"struct.std::_Rb_tree_node_base"*, align 8
  store %"struct.std::_Rb_tree_iterator"* %this, %"struct.std::_Rb_tree_iterator"** %this.addr, align 8
  call void @llvm.dbg.declare(metadata %"struct.std::_Rb_tree_iterator"** %this.addr, metadata !2039, metadata !1377), !dbg !2041
  store %"struct.std::_Rb_tree_node_base"* %__x, %"struct.std::_Rb_tree_node_base"** %__x.addr, align 8
  call void @llvm.dbg.declare(metadata %"struct.std::_Rb_tree_node_base"** %__x.addr, metadata !2042, metadata !1377), !dbg !2043
  %this1 = load %"struct.std::_Rb_tree_iterator"*, %"struct.std::_Rb_tree_iterator"** %this.addr
  %_M_node = getelementptr inbounds %"struct.std::_Rb_tree_iterator", %"struct.std::_Rb_tree_iterator"* %this1, i32 0, i32 0, !dbg !2044
  %0 = load %"struct.std::_Rb_tree_node_base"*, %"struct.std::_Rb_tree_node_base"** %__x.addr, align 8, !dbg !2045
  store %"struct.std::_Rb_tree_node_base"* %0, %"struct.std::_Rb_tree_node_base"** %_M_node, align 8, !dbg !2044
  ret void, !dbg !2046
}

; Function Attrs: nounwind uwtable
define linkonce_odr %"struct.std::_Rb_tree_node"* @_ZNSt8_Rb_treeINSt7__cxx1112basic_stringIcSt11char_traitsIcESaIcEEESt4pairIKS5_iESt10_Select1stIS8_ESt4lessIS5_ESaIS8_EE6_M_endEv(%"class.std::_Rb_tree"* %this) #0 comdat align 2 {
entry:
  %this.addr = alloca %"class.std::_Rb_tree"*, align 8
  store %"class.std::_Rb_tree"* %this, %"class.std::_Rb_tree"** %this.addr, align 8
  call void @llvm.dbg.declare(metadata %"class.std::_Rb_tree"** %this.addr, metadata !2047, metadata !1377), !dbg !2048
  %this1 = load %"class.std::_Rb_tree"*, %"class.std::_Rb_tree"** %this.addr
  %_M_impl = getelementptr inbounds %"class.std::_Rb_tree", %"class.std::_Rb_tree"* %this1, i32 0, i32 0, !dbg !2049
  %_M_header = getelementptr inbounds %"struct.std::_Rb_tree<std::__cxx11::basic_string<char>, std::pair<const std::__cxx11::basic_string<char>, int>, std::_Select1st<std::pair<const std::__cxx11::basic_string<char>, int> >, std::less<std::__cxx11::basic_string<char> >, std::allocator<std::pair<const std::__cxx11::basic_string<char>, int> > >::_Rb_tree_impl", %"struct.std::_Rb_tree<std::__cxx11::basic_string<char>, std::pair<const std::__cxx11::basic_string<char>, int>, std::_Select1st<std::pair<const std::__cxx11::basic_string<char>, int> >, std::less<std::__cxx11::basic_string<char> >, std::allocator<std::pair<const std::__cxx11::basic_string<char>, int> > >::_Rb_tree_impl"* %_M_impl, i32 0, i32 1, !dbg !2050
  %0 = bitcast %"struct.std::_Rb_tree_node_base"* %_M_header to %"struct.std::_Rb_tree_node"*, !dbg !2051
  ret %"struct.std::_Rb_tree_node"* %0, !dbg !2052
}

; Function Attrs: uwtable
define linkonce_odr %"struct.std::_Rb_tree_node_base"* @_ZNSt8_Rb_treeINSt7__cxx1112basic_stringIcSt11char_traitsIcESaIcEEESt4pairIKS5_iESt10_Select1stIS8_ESt4lessIS5_ESaIS8_EE3endEv(%"class.std::_Rb_tree"* %this) #2 comdat align 2 {
entry:
  %retval = alloca %"struct.std::_Rb_tree_iterator", align 8
  %this.addr = alloca %"class.std::_Rb_tree"*, align 8
  store %"class.std::_Rb_tree"* %this, %"class.std::_Rb_tree"** %this.addr, align 8
  call void @llvm.dbg.declare(metadata %"class.std::_Rb_tree"** %this.addr, metadata !2053, metadata !1377), !dbg !2054
  %this1 = load %"class.std::_Rb_tree"*, %"class.std::_Rb_tree"** %this.addr
  %_M_impl = getelementptr inbounds %"class.std::_Rb_tree", %"class.std::_Rb_tree"* %this1, i32 0, i32 0, !dbg !2055
  %_M_header = getelementptr inbounds %"struct.std::_Rb_tree<std::__cxx11::basic_string<char>, std::pair<const std::__cxx11::basic_string<char>, int>, std::_Select1st<std::pair<const std::__cxx11::basic_string<char>, int> >, std::less<std::__cxx11::basic_string<char> >, std::allocator<std::pair<const std::__cxx11::basic_string<char>, int> > >::_Rb_tree_impl", %"struct.std::_Rb_tree<std::__cxx11::basic_string<char>, std::pair<const std::__cxx11::basic_string<char>, int>, std::_Select1st<std::pair<const std::__cxx11::basic_string<char>, int> >, std::less<std::__cxx11::basic_string<char> >, std::allocator<std::pair<const std::__cxx11::basic_string<char>, int> > >::_Rb_tree_impl"* %_M_impl, i32 0, i32 1, !dbg !2056
  call void @_ZNSt17_Rb_tree_iteratorISt4pairIKNSt7__cxx1112basic_stringIcSt11char_traitsIcESaIcEEEiEEC2EPSt18_Rb_tree_node_base(%"struct.std::_Rb_tree_iterator"* %retval, %"struct.std::_Rb_tree_node_base"* %_M_header), !dbg !2057
  %coerce.dive = getelementptr %"struct.std::_Rb_tree_iterator", %"struct.std::_Rb_tree_iterator"* %retval, i32 0, i32 0, !dbg !2058
  %0 = load %"struct.std::_Rb_tree_node_base"*, %"struct.std::_Rb_tree_node_base"** %coerce.dive, !dbg !2058
  ret %"struct.std::_Rb_tree_node_base"* %0, !dbg !2058
}

; Function Attrs: uwtable
define linkonce_odr zeroext i1 @_ZNKSt4lessINSt7__cxx1112basic_stringIcSt11char_traitsIcESaIcEEEEclERKS5_S8_(%"struct.std::less"* %this, %"class.std::__cxx11::basic_string"* dereferenceable(32) %__x, %"class.std::__cxx11::basic_string"* dereferenceable(32) %__y) #2 comdat align 2 {
entry:
  %this.addr = alloca %"struct.std::less"*, align 8
  %__x.addr = alloca %"class.std::__cxx11::basic_string"*, align 8
  %__y.addr = alloca %"class.std::__cxx11::basic_string"*, align 8
  store %"struct.std::less"* %this, %"struct.std::less"** %this.addr, align 8
  call void @llvm.dbg.declare(metadata %"struct.std::less"** %this.addr, metadata !2059, metadata !1377), !dbg !2061
  store %"class.std::__cxx11::basic_string"* %__x, %"class.std::__cxx11::basic_string"** %__x.addr, align 8
  call void @llvm.dbg.declare(metadata %"class.std::__cxx11::basic_string"** %__x.addr, metadata !2062, metadata !1377), !dbg !2063
  store %"class.std::__cxx11::basic_string"* %__y, %"class.std::__cxx11::basic_string"** %__y.addr, align 8
  call void @llvm.dbg.declare(metadata %"class.std::__cxx11::basic_string"** %__y.addr, metadata !2064, metadata !1377), !dbg !2065
  %this1 = load %"struct.std::less"*, %"struct.std::less"** %this.addr
  %0 = load %"class.std::__cxx11::basic_string"*, %"class.std::__cxx11::basic_string"** %__x.addr, align 8, !dbg !2066
  %1 = load %"class.std::__cxx11::basic_string"*, %"class.std::__cxx11::basic_string"** %__y.addr, align 8, !dbg !2067
  %call = call zeroext i1 @_ZStltIcSt11char_traitsIcESaIcEEbRKNSt7__cxx1112basic_stringIT_T0_T1_EESA_(%"class.std::__cxx11::basic_string"* dereferenceable(32) %0, %"class.std::__cxx11::basic_string"* dereferenceable(32) %1), !dbg !2068
  ret i1 %call, !dbg !2069
}

; Function Attrs: inlinehint uwtable
define linkonce_odr zeroext i1 @_ZStltIcSt11char_traitsIcESaIcEEbRKNSt7__cxx1112basic_stringIT_T0_T1_EESA_(%"class.std::__cxx11::basic_string"* dereferenceable(32) %__lhs, %"class.std::__cxx11::basic_string"* dereferenceable(32) %__rhs) #11 comdat {
entry:
  %__lhs.addr = alloca %"class.std::__cxx11::basic_string"*, align 8
  %__rhs.addr = alloca %"class.std::__cxx11::basic_string"*, align 8
  store %"class.std::__cxx11::basic_string"* %__lhs, %"class.std::__cxx11::basic_string"** %__lhs.addr, align 8
  call void @llvm.dbg.declare(metadata %"class.std::__cxx11::basic_string"** %__lhs.addr, metadata !2070, metadata !1377), !dbg !2071
  store %"class.std::__cxx11::basic_string"* %__rhs, %"class.std::__cxx11::basic_string"** %__rhs.addr, align 8
  call void @llvm.dbg.declare(metadata %"class.std::__cxx11::basic_string"** %__rhs.addr, metadata !2072, metadata !1377), !dbg !2073
  %0 = load %"class.std::__cxx11::basic_string"*, %"class.std::__cxx11::basic_string"** %__lhs.addr, align 8, !dbg !2074
  %1 = load %"class.std::__cxx11::basic_string"*, %"class.std::__cxx11::basic_string"** %__rhs.addr, align 8, !dbg !2075
  %call = call i32 @_ZNKSt7__cxx1112basic_stringIcSt11char_traitsIcESaIcEE7compareERKS4_(%"class.std::__cxx11::basic_string"* %0, %"class.std::__cxx11::basic_string"* dereferenceable(32) %1), !dbg !2074
  %cmp = icmp slt i32 %call, 0, !dbg !2076
  ret i1 %cmp, !dbg !2077
}

; Function Attrs: uwtable
define linkonce_odr dereferenceable(32) %"class.std::__cxx11::basic_string"* @_ZNSt8_Rb_treeINSt7__cxx1112basic_stringIcSt11char_traitsIcESaIcEEESt4pairIKS5_iESt10_Select1stIS8_ESt4lessIS5_ESaIS8_EE6_S_keyEPKSt18_Rb_tree_node_base(%"struct.std::_Rb_tree_node_base"* %__x) #2 comdat align 2 {
entry:
  %__x.addr = alloca %"struct.std::_Rb_tree_node_base"*, align 8
  %tmp = alloca %"struct.std::less", align 1
  store %"struct.std::_Rb_tree_node_base"* %__x, %"struct.std::_Rb_tree_node_base"** %__x.addr, align 8
  call void @llvm.dbg.declare(metadata %"struct.std::_Rb_tree_node_base"** %__x.addr, metadata !2078, metadata !1377), !dbg !2079
  %0 = load %"struct.std::_Rb_tree_node_base"*, %"struct.std::_Rb_tree_node_base"** %__x.addr, align 8, !dbg !2080
  %call = call dereferenceable(40) %"struct.std::pair"* @_ZNSt8_Rb_treeINSt7__cxx1112basic_stringIcSt11char_traitsIcESaIcEEESt4pairIKS5_iESt10_Select1stIS8_ESt4lessIS5_ESaIS8_EE8_S_valueEPKSt18_Rb_tree_node_base(%"struct.std::_Rb_tree_node_base"* %0), !dbg !2081
  %call1 = call dereferenceable(32) %"class.std::__cxx11::basic_string"* @_ZNKSt10_Select1stISt4pairIKNSt7__cxx1112basic_stringIcSt11char_traitsIcESaIcEEEiEEclERKS8_(%"struct.std::less"* %tmp, %"struct.std::pair"* dereferenceable(40) %call), !dbg !2082
  ret %"class.std::__cxx11::basic_string"* %call1, !dbg !2083
}

; Function Attrs: uwtable
define linkonce_odr dereferenceable(40) %"struct.std::pair"* @_ZNSt8_Rb_treeINSt7__cxx1112basic_stringIcSt11char_traitsIcESaIcEEESt4pairIKS5_iESt10_Select1stIS8_ESt4lessIS5_ESaIS8_EE8_S_valueEPKSt18_Rb_tree_node_base(%"struct.std::_Rb_tree_node_base"* %__x) #2 comdat align 2 {
entry:
  %__x.addr = alloca %"struct.std::_Rb_tree_node_base"*, align 8
  store %"struct.std::_Rb_tree_node_base"* %__x, %"struct.std::_Rb_tree_node_base"** %__x.addr, align 8
  call void @llvm.dbg.declare(metadata %"struct.std::_Rb_tree_node_base"** %__x.addr, metadata !2084, metadata !1377), !dbg !2085
  %0 = load %"struct.std::_Rb_tree_node_base"*, %"struct.std::_Rb_tree_node_base"** %__x.addr, align 8, !dbg !2086
  %1 = bitcast %"struct.std::_Rb_tree_node_base"* %0 to %"struct.std::_Rb_tree_node"*, !dbg !2087
  %call = call %"struct.std::pair"* @_ZNKSt13_Rb_tree_nodeISt4pairIKNSt7__cxx1112basic_stringIcSt11char_traitsIcESaIcEEEiEE9_M_valptrEv(%"struct.std::_Rb_tree_node"* %1), !dbg !2087
  ret %"struct.std::pair"* %call, !dbg !2088
}

; Function Attrs: uwtable
define linkonce_odr %"struct.std::_Rb_tree_node_base"* @_ZNSt3mapINSt7__cxx1112basic_stringIcSt11char_traitsIcESaIcEEEiSt4lessIS5_ESaISt4pairIKS5_iEEE11lower_boundERS9_(%"class.std::map"* %this, %"class.std::__cxx11::basic_string"* dereferenceable(32) %__x) #2 comdat align 2 {
entry:
  %retval = alloca %"struct.std::_Rb_tree_iterator", align 8
  %this.addr = alloca %"class.std::map"*, align 8
  %__x.addr = alloca %"class.std::__cxx11::basic_string"*, align 8
  store %"class.std::map"* %this, %"class.std::map"** %this.addr, align 8
  call void @llvm.dbg.declare(metadata %"class.std::map"** %this.addr, metadata !2089, metadata !1377), !dbg !2090
  store %"class.std::__cxx11::basic_string"* %__x, %"class.std::__cxx11::basic_string"** %__x.addr, align 8
  call void @llvm.dbg.declare(metadata %"class.std::__cxx11::basic_string"** %__x.addr, metadata !2091, metadata !1377), !dbg !2092
  %this1 = load %"class.std::map"*, %"class.std::map"** %this.addr
  %_M_t = getelementptr inbounds %"class.std::map", %"class.std::map"* %this1, i32 0, i32 0, !dbg !2093
  %0 = load %"class.std::__cxx11::basic_string"*, %"class.std::__cxx11::basic_string"** %__x.addr, align 8, !dbg !2094
  %call = call %"struct.std::_Rb_tree_node_base"* @_ZNSt8_Rb_treeINSt7__cxx1112basic_stringIcSt11char_traitsIcESaIcEEESt4pairIKS5_iESt10_Select1stIS8_ESt4lessIS5_ESaIS8_EE11lower_boundERS7_(%"class.std::_Rb_tree"* %_M_t, %"class.std::__cxx11::basic_string"* dereferenceable(32) %0), !dbg !2093
  %coerce.dive = getelementptr %"struct.std::_Rb_tree_iterator", %"struct.std::_Rb_tree_iterator"* %retval, i32 0, i32 0, !dbg !2093
  store %"struct.std::_Rb_tree_node_base"* %call, %"struct.std::_Rb_tree_node_base"** %coerce.dive, !dbg !2093
  %coerce.dive2 = getelementptr %"struct.std::_Rb_tree_iterator", %"struct.std::_Rb_tree_iterator"* %retval, i32 0, i32 0, !dbg !2095
  %1 = load %"struct.std::_Rb_tree_node_base"*, %"struct.std::_Rb_tree_node_base"** %coerce.dive2, !dbg !2095
  ret %"struct.std::_Rb_tree_node_base"* %1, !dbg !2095
}

; Function Attrs: uwtable
define linkonce_odr %"struct.std::_Rb_tree_node_base"* @_ZNSt8_Rb_treeINSt7__cxx1112basic_stringIcSt11char_traitsIcESaIcEEESt4pairIKS5_iESt10_Select1stIS8_ESt4lessIS5_ESaIS8_EE11lower_boundERS7_(%"class.std::_Rb_tree"* %this, %"class.std::__cxx11::basic_string"* dereferenceable(32) %__k) #2 comdat align 2 {
entry:
  %retval = alloca %"struct.std::_Rb_tree_iterator", align 8
  %this.addr = alloca %"class.std::_Rb_tree"*, align 8
  %__k.addr = alloca %"class.std::__cxx11::basic_string"*, align 8
  store %"class.std::_Rb_tree"* %this, %"class.std::_Rb_tree"** %this.addr, align 8
  call void @llvm.dbg.declare(metadata %"class.std::_Rb_tree"** %this.addr, metadata !2096, metadata !1377), !dbg !2097
  store %"class.std::__cxx11::basic_string"* %__k, %"class.std::__cxx11::basic_string"** %__k.addr, align 8
  call void @llvm.dbg.declare(metadata %"class.std::__cxx11::basic_string"** %__k.addr, metadata !2098, metadata !1377), !dbg !2099
  %this1 = load %"class.std::_Rb_tree"*, %"class.std::_Rb_tree"** %this.addr
  %call = call %"struct.std::_Rb_tree_node"* @_ZNSt8_Rb_treeINSt7__cxx1112basic_stringIcSt11char_traitsIcESaIcEEESt4pairIKS5_iESt10_Select1stIS8_ESt4lessIS5_ESaIS8_EE8_M_beginEv(%"class.std::_Rb_tree"* %this1), !dbg !2100
  %call2 = call %"struct.std::_Rb_tree_node"* @_ZNSt8_Rb_treeINSt7__cxx1112basic_stringIcSt11char_traitsIcESaIcEEESt4pairIKS5_iESt10_Select1stIS8_ESt4lessIS5_ESaIS8_EE6_M_endEv(%"class.std::_Rb_tree"* %this1), !dbg !2101
  %0 = load %"class.std::__cxx11::basic_string"*, %"class.std::__cxx11::basic_string"** %__k.addr, align 8, !dbg !2102
  %call3 = call %"struct.std::_Rb_tree_node_base"* @_ZNSt8_Rb_treeINSt7__cxx1112basic_stringIcSt11char_traitsIcESaIcEEESt4pairIKS5_iESt10_Select1stIS8_ESt4lessIS5_ESaIS8_EE14_M_lower_boundEPSt13_Rb_tree_nodeIS8_ESH_RS7_(%"class.std::_Rb_tree"* %this1, %"struct.std::_Rb_tree_node"* %call, %"struct.std::_Rb_tree_node"* %call2, %"class.std::__cxx11::basic_string"* dereferenceable(32) %0), !dbg !2103
  %coerce.dive = getelementptr %"struct.std::_Rb_tree_iterator", %"struct.std::_Rb_tree_iterator"* %retval, i32 0, i32 0, !dbg !2103
  store %"struct.std::_Rb_tree_node_base"* %call3, %"struct.std::_Rb_tree_node_base"** %coerce.dive, !dbg !2103
  %coerce.dive4 = getelementptr %"struct.std::_Rb_tree_iterator", %"struct.std::_Rb_tree_iterator"* %retval, i32 0, i32 0, !dbg !2104
  %1 = load %"struct.std::_Rb_tree_node_base"*, %"struct.std::_Rb_tree_node_base"** %coerce.dive4, !dbg !2104
  ret %"struct.std::_Rb_tree_node_base"* %1, !dbg !2104
}

; Function Attrs: uwtable
define linkonce_odr void @_ZNKSt3mapINSt7__cxx1112basic_stringIcSt11char_traitsIcESaIcEEEiSt4lessIS5_ESaISt4pairIKS5_iEEE8key_compEv(%"class.std::map"* %this) #2 comdat align 2 {
entry:
  %retval = alloca %"struct.std::less", align 1
  %this.addr = alloca %"class.std::map"*, align 8
  %undef.agg.tmp = alloca %"struct.std::less", align 1
  store %"class.std::map"* %this, %"class.std::map"** %this.addr, align 8
  call void @llvm.dbg.declare(metadata %"class.std::map"** %this.addr, metadata !2105, metadata !1377), !dbg !2107
  %this1 = load %"class.std::map"*, %"class.std::map"** %this.addr
  %_M_t = getelementptr inbounds %"class.std::map", %"class.std::map"* %this1, i32 0, i32 0, !dbg !2108
  call void @_ZNKSt8_Rb_treeINSt7__cxx1112basic_stringIcSt11char_traitsIcESaIcEEESt4pairIKS5_iESt10_Select1stIS8_ESt4lessIS5_ESaIS8_EE8key_compEv(%"class.std::_Rb_tree"* %_M_t), !dbg !2108
  ret void, !dbg !2109
}

; Function Attrs: nounwind uwtable
define linkonce_odr void @_ZNKSt8_Rb_treeINSt7__cxx1112basic_stringIcSt11char_traitsIcESaIcEEESt4pairIKS5_iESt10_Select1stIS8_ESt4lessIS5_ESaIS8_EE8key_compEv(%"class.std::_Rb_tree"* %this) #0 comdat align 2 {
entry:
  %retval = alloca %"struct.std::less", align 1
  %this.addr = alloca %"class.std::_Rb_tree"*, align 8
  store %"class.std::_Rb_tree"* %this, %"class.std::_Rb_tree"** %this.addr, align 8
  call void @llvm.dbg.declare(metadata %"class.std::_Rb_tree"** %this.addr, metadata !2110, metadata !1377), !dbg !2111
  %this1 = load %"class.std::_Rb_tree"*, %"class.std::_Rb_tree"** %this.addr
  %_M_impl = getelementptr inbounds %"class.std::_Rb_tree", %"class.std::_Rb_tree"* %this1, i32 0, i32 0, !dbg !2112
  %_M_key_compare = getelementptr inbounds %"struct.std::_Rb_tree<std::__cxx11::basic_string<char>, std::pair<const std::__cxx11::basic_string<char>, int>, std::_Select1st<std::pair<const std::__cxx11::basic_string<char>, int> >, std::less<std::__cxx11::basic_string<char> >, std::allocator<std::pair<const std::__cxx11::basic_string<char>, int> > >::_Rb_tree_impl", %"struct.std::_Rb_tree<std::__cxx11::basic_string<char>, std::pair<const std::__cxx11::basic_string<char>, int>, std::_Select1st<std::pair<const std::__cxx11::basic_string<char>, int> >, std::less<std::__cxx11::basic_string<char> >, std::allocator<std::pair<const std::__cxx11::basic_string<char>, int> > >::_Rb_tree_impl"* %_M_impl, i32 0, i32 0, !dbg !2113
  ret void, !dbg !2114
}

; Function Attrs: uwtable
define linkonce_odr dereferenceable(40) %"struct.std::pair"* @_ZNKSt17_Rb_tree_iteratorISt4pairIKNSt7__cxx1112basic_stringIcSt11char_traitsIcESaIcEEEiEEdeEv(%"struct.std::_Rb_tree_iterator"* %this) #2 comdat align 2 {
entry:
  %this.addr = alloca %"struct.std::_Rb_tree_iterator"*, align 8
  store %"struct.std::_Rb_tree_iterator"* %this, %"struct.std::_Rb_tree_iterator"** %this.addr, align 8
  call void @llvm.dbg.declare(metadata %"struct.std::_Rb_tree_iterator"** %this.addr, metadata !2115, metadata !1377), !dbg !2116
  %this1 = load %"struct.std::_Rb_tree_iterator"*, %"struct.std::_Rb_tree_iterator"** %this.addr
  %_M_node = getelementptr inbounds %"struct.std::_Rb_tree_iterator", %"struct.std::_Rb_tree_iterator"* %this1, i32 0, i32 0, !dbg !2117
  %0 = load %"struct.std::_Rb_tree_node_base"*, %"struct.std::_Rb_tree_node_base"** %_M_node, align 8, !dbg !2117
  %1 = bitcast %"struct.std::_Rb_tree_node_base"* %0 to %"struct.std::_Rb_tree_node"*, !dbg !2118
  %call = call %"struct.std::pair"* @_ZNSt13_Rb_tree_nodeISt4pairIKNSt7__cxx1112basic_stringIcSt11char_traitsIcESaIcEEEiEE9_M_valptrEv(%"struct.std::_Rb_tree_node"* %1), !dbg !2118
  ret %"struct.std::pair"* %call, !dbg !2119
}

; Function Attrs: uwtable
define linkonce_odr %"struct.std::_Rb_tree_node_base"* @_ZNSt3mapINSt7__cxx1112basic_stringIcSt11char_traitsIcESaIcEEEiSt4lessIS5_ESaISt4pairIKS5_iEEE6insertESt17_Rb_tree_iteratorISA_ERKSA_(%"class.std::map"* %this, %"struct.std::_Rb_tree_node_base"* %__position.coerce, %"struct.std::pair"* dereferenceable(40) %__x) #2 comdat align 2 {
entry:
  %retval = alloca %"struct.std::_Rb_tree_iterator", align 8
  %__position = alloca %"struct.std::_Rb_tree_iterator", align 8
  %this.addr = alloca %"class.std::map"*, align 8
  %__x.addr = alloca %"struct.std::pair"*, align 8
  %agg.tmp = alloca %"struct.std::_Rb_tree_iterator", align 8
  %coerce.dive = getelementptr %"struct.std::_Rb_tree_iterator", %"struct.std::_Rb_tree_iterator"* %__position, i32 0, i32 0
  store %"struct.std::_Rb_tree_node_base"* %__position.coerce, %"struct.std::_Rb_tree_node_base"** %coerce.dive
  store %"class.std::map"* %this, %"class.std::map"** %this.addr, align 8
  call void @llvm.dbg.declare(metadata %"class.std::map"** %this.addr, metadata !2120, metadata !1377), !dbg !2121
  call void @llvm.dbg.declare(metadata %"struct.std::_Rb_tree_iterator"* %__position, metadata !2122, metadata !1377), !dbg !2123
  store %"struct.std::pair"* %__x, %"struct.std::pair"** %__x.addr, align 8
  call void @llvm.dbg.declare(metadata %"struct.std::pair"** %__x.addr, metadata !2124, metadata !1377), !dbg !2125
  %this1 = load %"class.std::map"*, %"class.std::map"** %this.addr
  %_M_t = getelementptr inbounds %"class.std::map", %"class.std::map"* %this1, i32 0, i32 0, !dbg !2126
  call void @_ZNSt23_Rb_tree_const_iteratorISt4pairIKNSt7__cxx1112basic_stringIcSt11char_traitsIcESaIcEEEiEEC2ERKSt17_Rb_tree_iteratorIS8_E(%"struct.std::_Rb_tree_iterator"* %agg.tmp, %"struct.std::_Rb_tree_iterator"* dereferenceable(8) %__position), !dbg !2127
  %0 = load %"struct.std::pair"*, %"struct.std::pair"** %__x.addr, align 8, !dbg !2128
  %coerce.dive2 = getelementptr %"struct.std::_Rb_tree_iterator", %"struct.std::_Rb_tree_iterator"* %agg.tmp, i32 0, i32 0, !dbg !2126
  %1 = load %"struct.std::_Rb_tree_node_base"*, %"struct.std::_Rb_tree_node_base"** %coerce.dive2, !dbg !2126
  %call = call %"struct.std::_Rb_tree_node_base"* @_ZNSt8_Rb_treeINSt7__cxx1112basic_stringIcSt11char_traitsIcESaIcEEESt4pairIKS5_iESt10_Select1stIS8_ESt4lessIS5_ESaIS8_EE17_M_insert_unique_ESt23_Rb_tree_const_iteratorIS8_ERKS8_(%"class.std::_Rb_tree"* %_M_t, %"struct.std::_Rb_tree_node_base"* %1, %"struct.std::pair"* dereferenceable(40) %0), !dbg !2126
  %coerce.dive3 = getelementptr %"struct.std::_Rb_tree_iterator", %"struct.std::_Rb_tree_iterator"* %retval, i32 0, i32 0, !dbg !2126
  store %"struct.std::_Rb_tree_node_base"* %call, %"struct.std::_Rb_tree_node_base"** %coerce.dive3, !dbg !2126
  %coerce.dive4 = getelementptr %"struct.std::_Rb_tree_iterator", %"struct.std::_Rb_tree_iterator"* %retval, i32 0, i32 0, !dbg !2129
  %2 = load %"struct.std::_Rb_tree_node_base"*, %"struct.std::_Rb_tree_node_base"** %coerce.dive4, !dbg !2129
  ret %"struct.std::_Rb_tree_node_base"* %2, !dbg !2129
}

; Function Attrs: uwtable
define linkonce_odr %"struct.std::_Rb_tree_node_base"* @_ZNSt8_Rb_treeINSt7__cxx1112basic_stringIcSt11char_traitsIcESaIcEEESt4pairIKS5_iESt10_Select1stIS8_ESt4lessIS5_ESaIS8_EE17_M_insert_unique_ESt23_Rb_tree_const_iteratorIS8_ERKS8_(%"class.std::_Rb_tree"* %this, %"struct.std::_Rb_tree_node_base"* %__pos.coerce, %"struct.std::pair"* dereferenceable(40) %__x) #2 comdat align 2 {
entry:
  %retval = alloca %"struct.std::_Rb_tree_iterator", align 8
  %__pos = alloca %"struct.std::_Rb_tree_iterator", align 8
  %this.addr = alloca %"class.std::_Rb_tree"*, align 8
  %__x.addr = alloca %"struct.std::pair"*, align 8
  %__an = alloca %"struct.std::_Rb_tree<std::__cxx11::basic_string<char>, std::pair<const std::__cxx11::basic_string<char>, int>, std::_Select1st<std::pair<const std::__cxx11::basic_string<char>, int> >, std::less<std::__cxx11::basic_string<char> >, std::allocator<std::pair<const std::__cxx11::basic_string<char>, int> > >::_Alloc_node", align 8
  %agg.tmp = alloca %"struct.std::_Rb_tree_iterator", align 8
  %coerce.dive = getelementptr %"struct.std::_Rb_tree_iterator", %"struct.std::_Rb_tree_iterator"* %__pos, i32 0, i32 0
  store %"struct.std::_Rb_tree_node_base"* %__pos.coerce, %"struct.std::_Rb_tree_node_base"** %coerce.dive
  store %"class.std::_Rb_tree"* %this, %"class.std::_Rb_tree"** %this.addr, align 8
  call void @llvm.dbg.declare(metadata %"class.std::_Rb_tree"** %this.addr, metadata !2130, metadata !1377), !dbg !2131
  call void @llvm.dbg.declare(metadata %"struct.std::_Rb_tree_iterator"* %__pos, metadata !2132, metadata !1377), !dbg !2133
  store %"struct.std::pair"* %__x, %"struct.std::pair"** %__x.addr, align 8
  call void @llvm.dbg.declare(metadata %"struct.std::pair"** %__x.addr, metadata !2134, metadata !1377), !dbg !2135
  %this1 = load %"class.std::_Rb_tree"*, %"class.std::_Rb_tree"** %this.addr
  call void @llvm.dbg.declare(metadata %"struct.std::_Rb_tree<std::__cxx11::basic_string<char>, std::pair<const std::__cxx11::basic_string<char>, int>, std::_Select1st<std::pair<const std::__cxx11::basic_string<char>, int> >, std::less<std::__cxx11::basic_string<char> >, std::allocator<std::pair<const std::__cxx11::basic_string<char>, int> > >::_Alloc_node"* %__an, metadata !2136, metadata !1377), !dbg !2137
  call void @_ZNSt8_Rb_treeINSt7__cxx1112basic_stringIcSt11char_traitsIcESaIcEEESt4pairIKS5_iESt10_Select1stIS8_ESt4lessIS5_ESaIS8_EE11_Alloc_nodeC2ERSE_(%"struct.std::_Rb_tree<std::__cxx11::basic_string<char>, std::pair<const std::__cxx11::basic_string<char>, int>, std::_Select1st<std::pair<const std::__cxx11::basic_string<char>, int> >, std::less<std::__cxx11::basic_string<char> >, std::allocator<std::pair<const std::__cxx11::basic_string<char>, int> > >::_Alloc_node"* %__an, %"class.std::_Rb_tree"* dereferenceable(48) %this1), !dbg !2137
  %0 = bitcast %"struct.std::_Rb_tree_iterator"* %agg.tmp to i8*, !dbg !2138
  %1 = bitcast %"struct.std::_Rb_tree_iterator"* %__pos to i8*, !dbg !2138
  call void @llvm.memcpy.p0i8.p0i8.i64(i8* %0, i8* %1, i64 8, i32 8, i1 false), !dbg !2138
  %2 = load %"struct.std::pair"*, %"struct.std::pair"** %__x.addr, align 8, !dbg !2139
  %coerce.dive2 = getelementptr %"struct.std::_Rb_tree_iterator", %"struct.std::_Rb_tree_iterator"* %agg.tmp, i32 0, i32 0, !dbg !2140
  %3 = load %"struct.std::_Rb_tree_node_base"*, %"struct.std::_Rb_tree_node_base"** %coerce.dive2, !dbg !2140
  %call = call %"struct.std::_Rb_tree_node_base"* @_ZNSt8_Rb_treeINSt7__cxx1112basic_stringIcSt11char_traitsIcESaIcEEESt4pairIKS5_iESt10_Select1stIS8_ESt4lessIS5_ESaIS8_EE17_M_insert_unique_INSE_11_Alloc_nodeEEESt17_Rb_tree_iteratorIS8_ESt23_Rb_tree_const_iteratorIS8_ERKS8_RT_(%"class.std::_Rb_tree"* %this1, %"struct.std::_Rb_tree_node_base"* %3, %"struct.std::pair"* dereferenceable(40) %2, %"struct.std::_Rb_tree<std::__cxx11::basic_string<char>, std::pair<const std::__cxx11::basic_string<char>, int>, std::_Select1st<std::pair<const std::__cxx11::basic_string<char>, int> >, std::less<std::__cxx11::basic_string<char> >, std::allocator<std::pair<const std::__cxx11::basic_string<char>, int> > >::_Alloc_node"* dereferenceable(8) %__an), !dbg !2140
  %coerce.dive3 = getelementptr %"struct.std::_Rb_tree_iterator", %"struct.std::_Rb_tree_iterator"* %retval, i32 0, i32 0, !dbg !2140
  store %"struct.std::_Rb_tree_node_base"* %call, %"struct.std::_Rb_tree_node_base"** %coerce.dive3, !dbg !2140
  %coerce.dive4 = getelementptr %"struct.std::_Rb_tree_iterator", %"struct.std::_Rb_tree_iterator"* %retval, i32 0, i32 0, !dbg !2141
  %4 = load %"struct.std::_Rb_tree_node_base"*, %"struct.std::_Rb_tree_node_base"** %coerce.dive4, !dbg !2141
  ret %"struct.std::_Rb_tree_node_base"* %4, !dbg !2141
}

; Function Attrs: nounwind uwtable
define linkonce_odr void @_ZNSt8_Rb_treeINSt7__cxx1112basic_stringIcSt11char_traitsIcESaIcEEESt4pairIKS5_iESt10_Select1stIS8_ESt4lessIS5_ESaIS8_EE11_Alloc_nodeC2ERSE_(%"struct.std::_Rb_tree<std::__cxx11::basic_string<char>, std::pair<const std::__cxx11::basic_string<char>, int>, std::_Select1st<std::pair<const std::__cxx11::basic_string<char>, int> >, std::less<std::__cxx11::basic_string<char> >, std::allocator<std::pair<const std::__cxx11::basic_string<char>, int> > >::_Alloc_node"* %this, %"class.std::_Rb_tree"* dereferenceable(48) %__t) unnamed_addr #0 comdat align 2 {
entry:
  %this.addr = alloca %"struct.std::_Rb_tree<std::__cxx11::basic_string<char>, std::pair<const std::__cxx11::basic_string<char>, int>, std::_Select1st<std::pair<const std::__cxx11::basic_string<char>, int> >, std::less<std::__cxx11::basic_string<char> >, std::allocator<std::pair<const std::__cxx11::basic_string<char>, int> > >::_Alloc_node"*, align 8
  %__t.addr = alloca %"class.std::_Rb_tree"*, align 8
  store %"struct.std::_Rb_tree<std::__cxx11::basic_string<char>, std::pair<const std::__cxx11::basic_string<char>, int>, std::_Select1st<std::pair<const std::__cxx11::basic_string<char>, int> >, std::less<std::__cxx11::basic_string<char> >, std::allocator<std::pair<const std::__cxx11::basic_string<char>, int> > >::_Alloc_node"* %this, %"struct.std::_Rb_tree<std::__cxx11::basic_string<char>, std::pair<const std::__cxx11::basic_string<char>, int>, std::_Select1st<std::pair<const std::__cxx11::basic_string<char>, int> >, std::less<std::__cxx11::basic_string<char> >, std::allocator<std::pair<const std::__cxx11::basic_string<char>, int> > >::_Alloc_node"** %this.addr, align 8
  call void @llvm.dbg.declare(metadata %"struct.std::_Rb_tree<std::__cxx11::basic_string<char>, std::pair<const std::__cxx11::basic_string<char>, int>, std::_Select1st<std::pair<const std::__cxx11::basic_string<char>, int> >, std::less<std::__cxx11::basic_string<char> >, std::allocator<std::pair<const std::__cxx11::basic_string<char>, int> > >::_Alloc_node"** %this.addr, metadata !2142, metadata !1377), !dbg !2144
  store %"class.std::_Rb_tree"* %__t, %"class.std::_Rb_tree"** %__t.addr, align 8
  call void @llvm.dbg.declare(metadata %"class.std::_Rb_tree"** %__t.addr, metadata !2145, metadata !1377), !dbg !2146
  %this1 = load %"struct.std::_Rb_tree<std::__cxx11::basic_string<char>, std::pair<const std::__cxx11::basic_string<char>, int>, std::_Select1st<std::pair<const std::__cxx11::basic_string<char>, int> >, std::less<std::__cxx11::basic_string<char> >, std::allocator<std::pair<const std::__cxx11::basic_string<char>, int> > >::_Alloc_node"*, %"struct.std::_Rb_tree<std::__cxx11::basic_string<char>, std::pair<const std::__cxx11::basic_string<char>, int>, std::_Select1st<std::pair<const std::__cxx11::basic_string<char>, int> >, std::less<std::__cxx11::basic_string<char> >, std::allocator<std::pair<const std::__cxx11::basic_string<char>, int> > >::_Alloc_node"** %this.addr
  %0 = getelementptr inbounds %"struct.std::_Rb_tree<std::__cxx11::basic_string<char>, std::pair<const std::__cxx11::basic_string<char>, int>, std::_Select1st<std::pair<const std::__cxx11::basic_string<char>, int> >, std::less<std::__cxx11::basic_string<char> >, std::allocator<std::pair<const std::__cxx11::basic_string<char>, int> > >::_Alloc_node", %"struct.std::_Rb_tree<std::__cxx11::basic_string<char>, std::pair<const std::__cxx11::basic_string<char>, int>, std::_Select1st<std::pair<const std::__cxx11::basic_string<char>, int> >, std::less<std::__cxx11::basic_string<char> >, std::allocator<std::pair<const std::__cxx11::basic_string<char>, int> > >::_Alloc_node"* %this1, i32 0, i32 0, !dbg !2147
  %1 = load %"class.std::_Rb_tree"*, %"class.std::_Rb_tree"** %__t.addr, align 8, !dbg !2148
  store %"class.std::_Rb_tree"* %1, %"class.std::_Rb_tree"** %0, align 8, !dbg !2147
  ret void, !dbg !2149
}

; Function Attrs: uwtable
define linkonce_odr %"struct.std::_Rb_tree_node_base"* @_ZNSt8_Rb_treeINSt7__cxx1112basic_stringIcSt11char_traitsIcESaIcEEESt4pairIKS5_iESt10_Select1stIS8_ESt4lessIS5_ESaIS8_EE17_M_insert_unique_INSE_11_Alloc_nodeEEESt17_Rb_tree_iteratorIS8_ESt23_Rb_tree_const_iteratorIS8_ERKS8_RT_(%"class.std::_Rb_tree"* %this, %"struct.std::_Rb_tree_node_base"* %__position.coerce, %"struct.std::pair"* dereferenceable(40) %__v, %"struct.std::_Rb_tree<std::__cxx11::basic_string<char>, std::pair<const std::__cxx11::basic_string<char>, int>, std::_Select1st<std::pair<const std::__cxx11::basic_string<char>, int> >, std::less<std::__cxx11::basic_string<char> >, std::allocator<std::pair<const std::__cxx11::basic_string<char>, int> > >::_Alloc_node"* dereferenceable(8) %__node_gen) #2 comdat align 2 {
entry:
  %retval = alloca %"struct.std::_Rb_tree_iterator", align 8
  %__position = alloca %"struct.std::_Rb_tree_iterator", align 8
  %this.addr = alloca %"class.std::_Rb_tree"*, align 8
  %__v.addr = alloca %"struct.std::pair"*, align 8
  %__node_gen.addr = alloca %"struct.std::_Rb_tree<std::__cxx11::basic_string<char>, std::pair<const std::__cxx11::basic_string<char>, int>, std::_Select1st<std::pair<const std::__cxx11::basic_string<char>, int> >, std::less<std::__cxx11::basic_string<char> >, std::allocator<std::pair<const std::__cxx11::basic_string<char>, int> > >::_Alloc_node"*, align 8
  %__res = alloca %"struct.std::pair.6", align 8
  %agg.tmp = alloca %"struct.std::_Rb_tree_iterator", align 8
  %tmp = alloca %"struct.std::less", align 1
  %coerce.dive = getelementptr %"struct.std::_Rb_tree_iterator", %"struct.std::_Rb_tree_iterator"* %__position, i32 0, i32 0
  store %"struct.std::_Rb_tree_node_base"* %__position.coerce, %"struct.std::_Rb_tree_node_base"** %coerce.dive
  store %"class.std::_Rb_tree"* %this, %"class.std::_Rb_tree"** %this.addr, align 8
  call void @llvm.dbg.declare(metadata %"class.std::_Rb_tree"** %this.addr, metadata !2150, metadata !1377), !dbg !2151
  call void @llvm.dbg.declare(metadata %"struct.std::_Rb_tree_iterator"* %__position, metadata !2152, metadata !1377), !dbg !2153
  store %"struct.std::pair"* %__v, %"struct.std::pair"** %__v.addr, align 8
  call void @llvm.dbg.declare(metadata %"struct.std::pair"** %__v.addr, metadata !2154, metadata !1377), !dbg !2155
  store %"struct.std::_Rb_tree<std::__cxx11::basic_string<char>, std::pair<const std::__cxx11::basic_string<char>, int>, std::_Select1st<std::pair<const std::__cxx11::basic_string<char>, int> >, std::less<std::__cxx11::basic_string<char> >, std::allocator<std::pair<const std::__cxx11::basic_string<char>, int> > >::_Alloc_node"* %__node_gen, %"struct.std::_Rb_tree<std::__cxx11::basic_string<char>, std::pair<const std::__cxx11::basic_string<char>, int>, std::_Select1st<std::pair<const std::__cxx11::basic_string<char>, int> >, std::less<std::__cxx11::basic_string<char> >, std::allocator<std::pair<const std::__cxx11::basic_string<char>, int> > >::_Alloc_node"** %__node_gen.addr, align 8
  call void @llvm.dbg.declare(metadata %"struct.std::_Rb_tree<std::__cxx11::basic_string<char>, std::pair<const std::__cxx11::basic_string<char>, int>, std::_Select1st<std::pair<const std::__cxx11::basic_string<char>, int> >, std::less<std::__cxx11::basic_string<char> >, std::allocator<std::pair<const std::__cxx11::basic_string<char>, int> > >::_Alloc_node"** %__node_gen.addr, metadata !2156, metadata !1377), !dbg !2157
  %this1 = load %"class.std::_Rb_tree"*, %"class.std::_Rb_tree"** %this.addr
  call void @llvm.dbg.declare(metadata %"struct.std::pair.6"* %__res, metadata !2158, metadata !1377), !dbg !2159
  %0 = bitcast %"struct.std::_Rb_tree_iterator"* %agg.tmp to i8*, !dbg !2160
  %1 = bitcast %"struct.std::_Rb_tree_iterator"* %__position to i8*, !dbg !2160
  call void @llvm.memcpy.p0i8.p0i8.i64(i8* %0, i8* %1, i64 8, i32 8, i1 false), !dbg !2160
  %2 = load %"struct.std::pair"*, %"struct.std::pair"** %__v.addr, align 8, !dbg !2161
  %call = call dereferenceable(32) %"class.std::__cxx11::basic_string"* @_ZNKSt10_Select1stISt4pairIKNSt7__cxx1112basic_stringIcSt11char_traitsIcESaIcEEEiEEclERKS8_(%"struct.std::less"* %tmp, %"struct.std::pair"* dereferenceable(40) %2), !dbg !2162
  %coerce.dive2 = getelementptr %"struct.std::_Rb_tree_iterator", %"struct.std::_Rb_tree_iterator"* %agg.tmp, i32 0, i32 0, !dbg !2163
  %3 = load %"struct.std::_Rb_tree_node_base"*, %"struct.std::_Rb_tree_node_base"** %coerce.dive2, !dbg !2163
  %call3 = call { %"struct.std::_Rb_tree_node_base"*, %"struct.std::_Rb_tree_node_base"* } @_ZNSt8_Rb_treeINSt7__cxx1112basic_stringIcSt11char_traitsIcESaIcEEESt4pairIKS5_iESt10_Select1stIS8_ESt4lessIS5_ESaIS8_EE29_M_get_insert_hint_unique_posESt23_Rb_tree_const_iteratorIS8_ERS7_(%"class.std::_Rb_tree"* %this1, %"struct.std::_Rb_tree_node_base"* %3, %"class.std::__cxx11::basic_string"* dereferenceable(32) %call), !dbg !2163
  %4 = bitcast %"struct.std::pair.6"* %__res to { %"struct.std::_Rb_tree_node_base"*, %"struct.std::_Rb_tree_node_base"* }*, !dbg !2163
  %5 = getelementptr { %"struct.std::_Rb_tree_node_base"*, %"struct.std::_Rb_tree_node_base"* }, { %"struct.std::_Rb_tree_node_base"*, %"struct.std::_Rb_tree_node_base"* }* %4, i32 0, i32 0, !dbg !2163
  %6 = extractvalue { %"struct.std::_Rb_tree_node_base"*, %"struct.std::_Rb_tree_node_base"* } %call3, 0, !dbg !2163
  store %"struct.std::_Rb_tree_node_base"* %6, %"struct.std::_Rb_tree_node_base"** %5, align 1, !dbg !2163
  %7 = getelementptr { %"struct.std::_Rb_tree_node_base"*, %"struct.std::_Rb_tree_node_base"* }, { %"struct.std::_Rb_tree_node_base"*, %"struct.std::_Rb_tree_node_base"* }* %4, i32 0, i32 1, !dbg !2163
  %8 = extractvalue { %"struct.std::_Rb_tree_node_base"*, %"struct.std::_Rb_tree_node_base"* } %call3, 1, !dbg !2163
  store %"struct.std::_Rb_tree_node_base"* %8, %"struct.std::_Rb_tree_node_base"** %7, align 1, !dbg !2163
  %second = getelementptr inbounds %"struct.std::pair.6", %"struct.std::pair.6"* %__res, i32 0, i32 1, !dbg !2164
  %9 = load %"struct.std::_Rb_tree_node_base"*, %"struct.std::_Rb_tree_node_base"** %second, align 8, !dbg !2164
  %tobool = icmp ne %"struct.std::_Rb_tree_node_base"* %9, null, !dbg !2166
  br i1 %tobool, label %if.then, label %if.end, !dbg !2167

if.then:                                          ; preds = %entry
  %first = getelementptr inbounds %"struct.std::pair.6", %"struct.std::pair.6"* %__res, i32 0, i32 0, !dbg !2168
  %10 = load %"struct.std::_Rb_tree_node_base"*, %"struct.std::_Rb_tree_node_base"** %first, align 8, !dbg !2168
  %second4 = getelementptr inbounds %"struct.std::pair.6", %"struct.std::pair.6"* %__res, i32 0, i32 1, !dbg !2169
  %11 = load %"struct.std::_Rb_tree_node_base"*, %"struct.std::_Rb_tree_node_base"** %second4, align 8, !dbg !2169
  %12 = load %"struct.std::pair"*, %"struct.std::pair"** %__v.addr, align 8, !dbg !2170
  %13 = load %"struct.std::_Rb_tree<std::__cxx11::basic_string<char>, std::pair<const std::__cxx11::basic_string<char>, int>, std::_Select1st<std::pair<const std::__cxx11::basic_string<char>, int> >, std::less<std::__cxx11::basic_string<char> >, std::allocator<std::pair<const std::__cxx11::basic_string<char>, int> > >::_Alloc_node"*, %"struct.std::_Rb_tree<std::__cxx11::basic_string<char>, std::pair<const std::__cxx11::basic_string<char>, int>, std::_Select1st<std::pair<const std::__cxx11::basic_string<char>, int> >, std::less<std::__cxx11::basic_string<char> >, std::allocator<std::pair<const std::__cxx11::basic_string<char>, int> > >::_Alloc_node"** %__node_gen.addr, align 8, !dbg !2171
  %call5 = call %"struct.std::_Rb_tree_node_base"* @_ZNSt8_Rb_treeINSt7__cxx1112basic_stringIcSt11char_traitsIcESaIcEEESt4pairIKS5_iESt10_Select1stIS8_ESt4lessIS5_ESaIS8_EE10_M_insert_INSE_11_Alloc_nodeEEESt17_Rb_tree_iteratorIS8_EPSt18_Rb_tree_node_baseSK_RKS8_RT_(%"class.std::_Rb_tree"* %this1, %"struct.std::_Rb_tree_node_base"* %10, %"struct.std::_Rb_tree_node_base"* %11, %"struct.std::pair"* dereferenceable(40) %12, %"struct.std::_Rb_tree<std::__cxx11::basic_string<char>, std::pair<const std::__cxx11::basic_string<char>, int>, std::_Select1st<std::pair<const std::__cxx11::basic_string<char>, int> >, std::less<std::__cxx11::basic_string<char> >, std::allocator<std::pair<const std::__cxx11::basic_string<char>, int> > >::_Alloc_node"* dereferenceable(8) %13), !dbg !2172
  %coerce.dive6 = getelementptr %"struct.std::_Rb_tree_iterator", %"struct.std::_Rb_tree_iterator"* %retval, i32 0, i32 0, !dbg !2172
  store %"struct.std::_Rb_tree_node_base"* %call5, %"struct.std::_Rb_tree_node_base"** %coerce.dive6, !dbg !2172
  br label %return, !dbg !2173

if.end:                                           ; preds = %entry
  %first7 = getelementptr inbounds %"struct.std::pair.6", %"struct.std::pair.6"* %__res, i32 0, i32 0, !dbg !2174
  %14 = load %"struct.std::_Rb_tree_node_base"*, %"struct.std::_Rb_tree_node_base"** %first7, align 8, !dbg !2174
  %15 = bitcast %"struct.std::_Rb_tree_node_base"* %14 to %"struct.std::_Rb_tree_node"*, !dbg !2175
  %16 = bitcast %"struct.std::_Rb_tree_node"* %15 to %"struct.std::_Rb_tree_node_base"*, !dbg !2175
  call void @_ZNSt17_Rb_tree_iteratorISt4pairIKNSt7__cxx1112basic_stringIcSt11char_traitsIcESaIcEEEiEEC2EPSt18_Rb_tree_node_base(%"struct.std::_Rb_tree_iterator"* %retval, %"struct.std::_Rb_tree_node_base"* %16), !dbg !2176
  br label %return, !dbg !2177

return:                                           ; preds = %if.end, %if.then
  %coerce.dive8 = getelementptr %"struct.std::_Rb_tree_iterator", %"struct.std::_Rb_tree_iterator"* %retval, i32 0, i32 0, !dbg !2178
  %17 = load %"struct.std::_Rb_tree_node_base"*, %"struct.std::_Rb_tree_node_base"** %coerce.dive8, !dbg !2178
  ret %"struct.std::_Rb_tree_node_base"* %17, !dbg !2178
}

; Function Attrs: uwtable
define linkonce_odr { %"struct.std::_Rb_tree_node_base"*, %"struct.std::_Rb_tree_node_base"* } @_ZNSt8_Rb_treeINSt7__cxx1112basic_stringIcSt11char_traitsIcESaIcEEESt4pairIKS5_iESt10_Select1stIS8_ESt4lessIS5_ESaIS8_EE29_M_get_insert_hint_unique_posESt23_Rb_tree_const_iteratorIS8_ERS7_(%"class.std::_Rb_tree"* %this, %"struct.std::_Rb_tree_node_base"* %__position.coerce, %"class.std::__cxx11::basic_string"* dereferenceable(32) %__k) #2 comdat align 2 {
entry:
  %retval = alloca %"struct.std::pair.6", align 8
  %__position = alloca %"struct.std::_Rb_tree_iterator", align 8
  %this.addr = alloca %"class.std::_Rb_tree"*, align 8
  %__k.addr = alloca %"class.std::__cxx11::basic_string"*, align 8
  %__pos = alloca %"struct.std::_Rb_tree_iterator", align 8
  %ref.tmp = alloca %"struct.std::_Rb_tree_node_base"*, align 8
  %__before = alloca %"struct.std::_Rb_tree_iterator", align 8
  %ref.tmp37 = alloca %"struct.std::_Rb_tree_node_base"*, align 8
  %__after = alloca %"struct.std::_Rb_tree_iterator", align 8
  %ref.tmp55 = alloca %"struct.std::_Rb_tree_node_base"*, align 8
  %ref.tmp69 = alloca %"struct.std::_Rb_tree_node_base"*, align 8
  %ref.tmp78 = alloca %"struct.std::_Rb_tree_node_base"*, align 8
  %coerce.dive = getelementptr %"struct.std::_Rb_tree_iterator", %"struct.std::_Rb_tree_iterator"* %__position, i32 0, i32 0
  store %"struct.std::_Rb_tree_node_base"* %__position.coerce, %"struct.std::_Rb_tree_node_base"** %coerce.dive
  store %"class.std::_Rb_tree"* %this, %"class.std::_Rb_tree"** %this.addr, align 8
  call void @llvm.dbg.declare(metadata %"class.std::_Rb_tree"** %this.addr, metadata !2179, metadata !1377), !dbg !2180
  call void @llvm.dbg.declare(metadata %"struct.std::_Rb_tree_iterator"* %__position, metadata !2181, metadata !1377), !dbg !2182
  store %"class.std::__cxx11::basic_string"* %__k, %"class.std::__cxx11::basic_string"** %__k.addr, align 8
  call void @llvm.dbg.declare(metadata %"class.std::__cxx11::basic_string"** %__k.addr, metadata !2183, metadata !1377), !dbg !2184
  %this1 = load %"class.std::_Rb_tree"*, %"class.std::_Rb_tree"** %this.addr
  call void @llvm.dbg.declare(metadata %"struct.std::_Rb_tree_iterator"* %__pos, metadata !2185, metadata !1377), !dbg !2186
  %call = call %"struct.std::_Rb_tree_node_base"* @_ZNKSt23_Rb_tree_const_iteratorISt4pairIKNSt7__cxx1112basic_stringIcSt11char_traitsIcESaIcEEEiEE13_M_const_castEv(%"struct.std::_Rb_tree_iterator"* %__position), !dbg !2187
  %coerce.dive2 = getelementptr %"struct.std::_Rb_tree_iterator", %"struct.std::_Rb_tree_iterator"* %__pos, i32 0, i32 0, !dbg !2187
  store %"struct.std::_Rb_tree_node_base"* %call, %"struct.std::_Rb_tree_node_base"** %coerce.dive2, !dbg !2187
  %_M_node = getelementptr inbounds %"struct.std::_Rb_tree_iterator", %"struct.std::_Rb_tree_iterator"* %__pos, i32 0, i32 0, !dbg !2188
  %0 = load %"struct.std::_Rb_tree_node_base"*, %"struct.std::_Rb_tree_node_base"** %_M_node, align 8, !dbg !2188
  %call3 = call %"struct.std::_Rb_tree_node"* @_ZNSt8_Rb_treeINSt7__cxx1112basic_stringIcSt11char_traitsIcESaIcEEESt4pairIKS5_iESt10_Select1stIS8_ESt4lessIS5_ESaIS8_EE6_M_endEv(%"class.std::_Rb_tree"* %this1), !dbg !2190
  %1 = bitcast %"struct.std::_Rb_tree_node"* %call3 to %"struct.std::_Rb_tree_node_base"*, !dbg !2190
  %cmp = icmp eq %"struct.std::_Rb_tree_node_base"* %0, %1, !dbg !2191
  br i1 %cmp, label %if.then, label %if.else12, !dbg !2192

if.then:                                          ; preds = %entry
  %call4 = call i64 @_ZNKSt8_Rb_treeINSt7__cxx1112basic_stringIcSt11char_traitsIcESaIcEEESt4pairIKS5_iESt10_Select1stIS8_ESt4lessIS5_ESaIS8_EE4sizeEv(%"class.std::_Rb_tree"* %this1), !dbg !2193
  %cmp5 = icmp ugt i64 %call4, 0, !dbg !2196
  br i1 %cmp5, label %land.lhs.true, label %if.else, !dbg !2197

land.lhs.true:                                    ; preds = %if.then
  %_M_impl = getelementptr inbounds %"class.std::_Rb_tree", %"class.std::_Rb_tree"* %this1, i32 0, i32 0, !dbg !2198
  %_M_key_compare = getelementptr inbounds %"struct.std::_Rb_tree<std::__cxx11::basic_string<char>, std::pair<const std::__cxx11::basic_string<char>, int>, std::_Select1st<std::pair<const std::__cxx11::basic_string<char>, int> >, std::less<std::__cxx11::basic_string<char> >, std::allocator<std::pair<const std::__cxx11::basic_string<char>, int> > >::_Rb_tree_impl", %"struct.std::_Rb_tree<std::__cxx11::basic_string<char>, std::pair<const std::__cxx11::basic_string<char>, int>, std::_Select1st<std::pair<const std::__cxx11::basic_string<char>, int> >, std::less<std::__cxx11::basic_string<char> >, std::allocator<std::pair<const std::__cxx11::basic_string<char>, int> > >::_Rb_tree_impl"* %_M_impl, i32 0, i32 0, !dbg !2200
  %call6 = call dereferenceable(8) %"struct.std::_Rb_tree_node_base"** @_ZNSt8_Rb_treeINSt7__cxx1112basic_stringIcSt11char_traitsIcESaIcEEESt4pairIKS5_iESt10_Select1stIS8_ESt4lessIS5_ESaIS8_EE12_M_rightmostEv(%"class.std::_Rb_tree"* %this1), !dbg !2201
  %2 = load %"struct.std::_Rb_tree_node_base"*, %"struct.std::_Rb_tree_node_base"** %call6, !dbg !2201
  %call7 = call dereferenceable(32) %"class.std::__cxx11::basic_string"* @_ZNSt8_Rb_treeINSt7__cxx1112basic_stringIcSt11char_traitsIcESaIcEEESt4pairIKS5_iESt10_Select1stIS8_ESt4lessIS5_ESaIS8_EE6_S_keyEPKSt18_Rb_tree_node_base(%"struct.std::_Rb_tree_node_base"* %2), !dbg !2202
  %3 = load %"class.std::__cxx11::basic_string"*, %"class.std::__cxx11::basic_string"** %__k.addr, align 8, !dbg !2203
  %call8 = call zeroext i1 @_ZNKSt4lessINSt7__cxx1112basic_stringIcSt11char_traitsIcESaIcEEEEclERKS5_S8_(%"struct.std::less"* %_M_key_compare, %"class.std::__cxx11::basic_string"* dereferenceable(32) %call7, %"class.std::__cxx11::basic_string"* dereferenceable(32) %3), !dbg !2204
  br i1 %call8, label %if.then9, label %if.else, !dbg !2205

if.then9:                                         ; preds = %land.lhs.true
  store %"struct.std::_Rb_tree_node_base"* null, %"struct.std::_Rb_tree_node_base"** %ref.tmp, !dbg !2206
  %call10 = call dereferenceable(8) %"struct.std::_Rb_tree_node_base"** @_ZNSt8_Rb_treeINSt7__cxx1112basic_stringIcSt11char_traitsIcESaIcEEESt4pairIKS5_iESt10_Select1stIS8_ESt4lessIS5_ESaIS8_EE12_M_rightmostEv(%"class.std::_Rb_tree"* %this1), !dbg !2207
  call void @_ZNSt4pairIPSt18_Rb_tree_node_baseS1_EC2ERKS1_S4_(%"struct.std::pair.6"* %retval, %"struct.std::_Rb_tree_node_base"** dereferenceable(8) %ref.tmp, %"struct.std::_Rb_tree_node_base"** dereferenceable(8) %call10), !dbg !2208
  br label %return, !dbg !2209

if.else:                                          ; preds = %land.lhs.true, %if.then
  %4 = load %"class.std::__cxx11::basic_string"*, %"class.std::__cxx11::basic_string"** %__k.addr, align 8, !dbg !2210
  %call11 = call { %"struct.std::_Rb_tree_node_base"*, %"struct.std::_Rb_tree_node_base"* } @_ZNSt8_Rb_treeINSt7__cxx1112basic_stringIcSt11char_traitsIcESaIcEEESt4pairIKS5_iESt10_Select1stIS8_ESt4lessIS5_ESaIS8_EE24_M_get_insert_unique_posERS7_(%"class.std::_Rb_tree"* %this1, %"class.std::__cxx11::basic_string"* dereferenceable(32) %4), !dbg !2211
  %5 = bitcast %"struct.std::pair.6"* %retval to { %"struct.std::_Rb_tree_node_base"*, %"struct.std::_Rb_tree_node_base"* }*, !dbg !2211
  %6 = getelementptr { %"struct.std::_Rb_tree_node_base"*, %"struct.std::_Rb_tree_node_base"* }, { %"struct.std::_Rb_tree_node_base"*, %"struct.std::_Rb_tree_node_base"* }* %5, i32 0, i32 0, !dbg !2211
  %7 = extractvalue { %"struct.std::_Rb_tree_node_base"*, %"struct.std::_Rb_tree_node_base"* } %call11, 0, !dbg !2211
  store %"struct.std::_Rb_tree_node_base"* %7, %"struct.std::_Rb_tree_node_base"** %6, align 1, !dbg !2211
  %8 = getelementptr { %"struct.std::_Rb_tree_node_base"*, %"struct.std::_Rb_tree_node_base"* }, { %"struct.std::_Rb_tree_node_base"*, %"struct.std::_Rb_tree_node_base"* }* %5, i32 0, i32 1, !dbg !2211
  %9 = extractvalue { %"struct.std::_Rb_tree_node_base"*, %"struct.std::_Rb_tree_node_base"* } %call11, 1, !dbg !2211
  store %"struct.std::_Rb_tree_node_base"* %9, %"struct.std::_Rb_tree_node_base"** %8, align 1, !dbg !2211
  br label %return, !dbg !2212

if.else12:                                        ; preds = %entry
  %_M_impl13 = getelementptr inbounds %"class.std::_Rb_tree", %"class.std::_Rb_tree"* %this1, i32 0, i32 0, !dbg !2213
  %_M_key_compare14 = getelementptr inbounds %"struct.std::_Rb_tree<std::__cxx11::basic_string<char>, std::pair<const std::__cxx11::basic_string<char>, int>, std::_Select1st<std::pair<const std::__cxx11::basic_string<char>, int> >, std::less<std::__cxx11::basic_string<char> >, std::allocator<std::pair<const std::__cxx11::basic_string<char>, int> > >::_Rb_tree_impl", %"struct.std::_Rb_tree<std::__cxx11::basic_string<char>, std::pair<const std::__cxx11::basic_string<char>, int>, std::_Select1st<std::pair<const std::__cxx11::basic_string<char>, int> >, std::less<std::__cxx11::basic_string<char> >, std::allocator<std::pair<const std::__cxx11::basic_string<char>, int> > >::_Rb_tree_impl"* %_M_impl13, i32 0, i32 0, !dbg !2215
  %10 = load %"class.std::__cxx11::basic_string"*, %"class.std::__cxx11::basic_string"** %__k.addr, align 8, !dbg !2216
  %_M_node15 = getelementptr inbounds %"struct.std::_Rb_tree_iterator", %"struct.std::_Rb_tree_iterator"* %__pos, i32 0, i32 0, !dbg !2217
  %11 = load %"struct.std::_Rb_tree_node_base"*, %"struct.std::_Rb_tree_node_base"** %_M_node15, align 8, !dbg !2217
  %call16 = call dereferenceable(32) %"class.std::__cxx11::basic_string"* @_ZNSt8_Rb_treeINSt7__cxx1112basic_stringIcSt11char_traitsIcESaIcEEESt4pairIKS5_iESt10_Select1stIS8_ESt4lessIS5_ESaIS8_EE6_S_keyEPKSt18_Rb_tree_node_base(%"struct.std::_Rb_tree_node_base"* %11), !dbg !2218
  %call17 = call zeroext i1 @_ZNKSt4lessINSt7__cxx1112basic_stringIcSt11char_traitsIcESaIcEEEEclERKS5_S8_(%"struct.std::less"* %_M_key_compare14, %"class.std::__cxx11::basic_string"* dereferenceable(32) %10, %"class.std::__cxx11::basic_string"* dereferenceable(32) %call16), !dbg !2213
  br i1 %call17, label %if.then18, label %if.else44, !dbg !2219

if.then18:                                        ; preds = %if.else12
  call void @llvm.dbg.declare(metadata %"struct.std::_Rb_tree_iterator"* %__before, metadata !2220, metadata !1377), !dbg !2222
  %12 = bitcast %"struct.std::_Rb_tree_iterator"* %__before to i8*, !dbg !2223
  %13 = bitcast %"struct.std::_Rb_tree_iterator"* %__pos to i8*, !dbg !2223
  call void @llvm.memcpy.p0i8.p0i8.i64(i8* %12, i8* %13, i64 8, i32 8, i1 false), !dbg !2223
  %_M_node19 = getelementptr inbounds %"struct.std::_Rb_tree_iterator", %"struct.std::_Rb_tree_iterator"* %__pos, i32 0, i32 0, !dbg !2224
  %14 = load %"struct.std::_Rb_tree_node_base"*, %"struct.std::_Rb_tree_node_base"** %_M_node19, align 8, !dbg !2224
  %call20 = call dereferenceable(8) %"struct.std::_Rb_tree_node_base"** @_ZNSt8_Rb_treeINSt7__cxx1112basic_stringIcSt11char_traitsIcESaIcEEESt4pairIKS5_iESt10_Select1stIS8_ESt4lessIS5_ESaIS8_EE11_M_leftmostEv(%"class.std::_Rb_tree"* %this1), !dbg !2226
  %15 = load %"struct.std::_Rb_tree_node_base"*, %"struct.std::_Rb_tree_node_base"** %call20, !dbg !2226
  %cmp21 = icmp eq %"struct.std::_Rb_tree_node_base"* %14, %15, !dbg !2227
  br i1 %cmp21, label %if.then22, label %if.else25, !dbg !2228

if.then22:                                        ; preds = %if.then18
  %call23 = call dereferenceable(8) %"struct.std::_Rb_tree_node_base"** @_ZNSt8_Rb_treeINSt7__cxx1112basic_stringIcSt11char_traitsIcESaIcEEESt4pairIKS5_iESt10_Select1stIS8_ESt4lessIS5_ESaIS8_EE11_M_leftmostEv(%"class.std::_Rb_tree"* %this1), !dbg !2229
  %call24 = call dereferenceable(8) %"struct.std::_Rb_tree_node_base"** @_ZNSt8_Rb_treeINSt7__cxx1112basic_stringIcSt11char_traitsIcESaIcEEESt4pairIKS5_iESt10_Select1stIS8_ESt4lessIS5_ESaIS8_EE11_M_leftmostEv(%"class.std::_Rb_tree"* %this1), !dbg !2230
  call void @_ZNSt4pairIPSt18_Rb_tree_node_baseS1_EC2ERKS1_S4_(%"struct.std::pair.6"* %retval, %"struct.std::_Rb_tree_node_base"** dereferenceable(8) %call23, %"struct.std::_Rb_tree_node_base"** dereferenceable(8) %call24), !dbg !2231
  br label %return, !dbg !2232

if.else25:                                        ; preds = %if.then18
  %_M_impl26 = getelementptr inbounds %"class.std::_Rb_tree", %"class.std::_Rb_tree"* %this1, i32 0, i32 0, !dbg !2233
  %_M_key_compare27 = getelementptr inbounds %"struct.std::_Rb_tree<std::__cxx11::basic_string<char>, std::pair<const std::__cxx11::basic_string<char>, int>, std::_Select1st<std::pair<const std::__cxx11::basic_string<char>, int> >, std::less<std::__cxx11::basic_string<char> >, std::allocator<std::pair<const std::__cxx11::basic_string<char>, int> > >::_Rb_tree_impl", %"struct.std::_Rb_tree<std::__cxx11::basic_string<char>, std::pair<const std::__cxx11::basic_string<char>, int>, std::_Select1st<std::pair<const std::__cxx11::basic_string<char>, int> >, std::less<std::__cxx11::basic_string<char> >, std::allocator<std::pair<const std::__cxx11::basic_string<char>, int> > >::_Rb_tree_impl"* %_M_impl26, i32 0, i32 0, !dbg !2235
  %call28 = call dereferenceable(8) %"struct.std::_Rb_tree_iterator"* @_ZNSt17_Rb_tree_iteratorISt4pairIKNSt7__cxx1112basic_stringIcSt11char_traitsIcESaIcEEEiEEmmEv(%"struct.std::_Rb_tree_iterator"* %__before), !dbg !2236
  %_M_node29 = getelementptr inbounds %"struct.std::_Rb_tree_iterator", %"struct.std::_Rb_tree_iterator"* %call28, i32 0, i32 0, !dbg !2237
  %16 = load %"struct.std::_Rb_tree_node_base"*, %"struct.std::_Rb_tree_node_base"** %_M_node29, align 8, !dbg !2237
  %call30 = call dereferenceable(32) %"class.std::__cxx11::basic_string"* @_ZNSt8_Rb_treeINSt7__cxx1112basic_stringIcSt11char_traitsIcESaIcEEESt4pairIKS5_iESt10_Select1stIS8_ESt4lessIS5_ESaIS8_EE6_S_keyEPKSt18_Rb_tree_node_base(%"struct.std::_Rb_tree_node_base"* %16), !dbg !2238
  %17 = load %"class.std::__cxx11::basic_string"*, %"class.std::__cxx11::basic_string"** %__k.addr, align 8, !dbg !2239
  %call31 = call zeroext i1 @_ZNKSt4lessINSt7__cxx1112basic_stringIcSt11char_traitsIcESaIcEEEEclERKS5_S8_(%"struct.std::less"* %_M_key_compare27, %"class.std::__cxx11::basic_string"* dereferenceable(32) %call30, %"class.std::__cxx11::basic_string"* dereferenceable(32) %17), !dbg !2233
  br i1 %call31, label %if.then32, label %if.else42, !dbg !2240

if.then32:                                        ; preds = %if.else25
  %_M_node33 = getelementptr inbounds %"struct.std::_Rb_tree_iterator", %"struct.std::_Rb_tree_iterator"* %__before, i32 0, i32 0, !dbg !2241
  %18 = load %"struct.std::_Rb_tree_node_base"*, %"struct.std::_Rb_tree_node_base"** %_M_node33, align 8, !dbg !2241
  %call34 = call %"struct.std::_Rb_tree_node"* @_ZNSt8_Rb_treeINSt7__cxx1112basic_stringIcSt11char_traitsIcESaIcEEESt4pairIKS5_iESt10_Select1stIS8_ESt4lessIS5_ESaIS8_EE8_S_rightEPSt18_Rb_tree_node_base(%"struct.std::_Rb_tree_node_base"* %18), !dbg !2244
  %cmp35 = icmp eq %"struct.std::_Rb_tree_node"* %call34, null, !dbg !2245
  br i1 %cmp35, label %if.then36, label %if.else39, !dbg !2246

if.then36:                                        ; preds = %if.then32
  store %"struct.std::_Rb_tree_node_base"* null, %"struct.std::_Rb_tree_node_base"** %ref.tmp37, !dbg !2247
  %_M_node38 = getelementptr inbounds %"struct.std::_Rb_tree_iterator", %"struct.std::_Rb_tree_iterator"* %__before, i32 0, i32 0, !dbg !2248
  call void @_ZNSt4pairIPSt18_Rb_tree_node_baseS1_EC2ERKS1_S4_(%"struct.std::pair.6"* %retval, %"struct.std::_Rb_tree_node_base"** dereferenceable(8) %ref.tmp37, %"struct.std::_Rb_tree_node_base"** dereferenceable(8) %_M_node38), !dbg !2249
  br label %return, !dbg !2250

if.else39:                                        ; preds = %if.then32
  %_M_node40 = getelementptr inbounds %"struct.std::_Rb_tree_iterator", %"struct.std::_Rb_tree_iterator"* %__pos, i32 0, i32 0, !dbg !2251
  %_M_node41 = getelementptr inbounds %"struct.std::_Rb_tree_iterator", %"struct.std::_Rb_tree_iterator"* %__pos, i32 0, i32 0, !dbg !2252
  call void @_ZNSt4pairIPSt18_Rb_tree_node_baseS1_EC2ERKS1_S4_(%"struct.std::pair.6"* %retval, %"struct.std::_Rb_tree_node_base"** dereferenceable(8) %_M_node40, %"struct.std::_Rb_tree_node_base"** dereferenceable(8) %_M_node41), !dbg !2253
  br label %return, !dbg !2254

if.else42:                                        ; preds = %if.else25
  %19 = load %"class.std::__cxx11::basic_string"*, %"class.std::__cxx11::basic_string"** %__k.addr, align 8, !dbg !2255
  %call43 = call { %"struct.std::_Rb_tree_node_base"*, %"struct.std::_Rb_tree_node_base"* } @_ZNSt8_Rb_treeINSt7__cxx1112basic_stringIcSt11char_traitsIcESaIcEEESt4pairIKS5_iESt10_Select1stIS8_ESt4lessIS5_ESaIS8_EE24_M_get_insert_unique_posERS7_(%"class.std::_Rb_tree"* %this1, %"class.std::__cxx11::basic_string"* dereferenceable(32) %19), !dbg !2256
  %20 = bitcast %"struct.std::pair.6"* %retval to { %"struct.std::_Rb_tree_node_base"*, %"struct.std::_Rb_tree_node_base"* }*, !dbg !2256
  %21 = getelementptr { %"struct.std::_Rb_tree_node_base"*, %"struct.std::_Rb_tree_node_base"* }, { %"struct.std::_Rb_tree_node_base"*, %"struct.std::_Rb_tree_node_base"* }* %20, i32 0, i32 0, !dbg !2256
  %22 = extractvalue { %"struct.std::_Rb_tree_node_base"*, %"struct.std::_Rb_tree_node_base"* } %call43, 0, !dbg !2256
  store %"struct.std::_Rb_tree_node_base"* %22, %"struct.std::_Rb_tree_node_base"** %21, align 1, !dbg !2256
  %23 = getelementptr { %"struct.std::_Rb_tree_node_base"*, %"struct.std::_Rb_tree_node_base"* }, { %"struct.std::_Rb_tree_node_base"*, %"struct.std::_Rb_tree_node_base"* }* %20, i32 0, i32 1, !dbg !2256
  %24 = extractvalue { %"struct.std::_Rb_tree_node_base"*, %"struct.std::_Rb_tree_node_base"* } %call43, 1, !dbg !2256
  store %"struct.std::_Rb_tree_node_base"* %24, %"struct.std::_Rb_tree_node_base"** %23, align 1, !dbg !2256
  br label %return, !dbg !2257

if.else44:                                        ; preds = %if.else12
  %_M_impl45 = getelementptr inbounds %"class.std::_Rb_tree", %"class.std::_Rb_tree"* %this1, i32 0, i32 0, !dbg !2258
  %_M_key_compare46 = getelementptr inbounds %"struct.std::_Rb_tree<std::__cxx11::basic_string<char>, std::pair<const std::__cxx11::basic_string<char>, int>, std::_Select1st<std::pair<const std::__cxx11::basic_string<char>, int> >, std::less<std::__cxx11::basic_string<char> >, std::allocator<std::pair<const std::__cxx11::basic_string<char>, int> > >::_Rb_tree_impl", %"struct.std::_Rb_tree<std::__cxx11::basic_string<char>, std::pair<const std::__cxx11::basic_string<char>, int>, std::_Select1st<std::pair<const std::__cxx11::basic_string<char>, int> >, std::less<std::__cxx11::basic_string<char> >, std::allocator<std::pair<const std::__cxx11::basic_string<char>, int> > >::_Rb_tree_impl"* %_M_impl45, i32 0, i32 0, !dbg !2260
  %_M_node47 = getelementptr inbounds %"struct.std::_Rb_tree_iterator", %"struct.std::_Rb_tree_iterator"* %__pos, i32 0, i32 0, !dbg !2261
  %25 = load %"struct.std::_Rb_tree_node_base"*, %"struct.std::_Rb_tree_node_base"** %_M_node47, align 8, !dbg !2261
  %call48 = call dereferenceable(32) %"class.std::__cxx11::basic_string"* @_ZNSt8_Rb_treeINSt7__cxx1112basic_stringIcSt11char_traitsIcESaIcEEESt4pairIKS5_iESt10_Select1stIS8_ESt4lessIS5_ESaIS8_EE6_S_keyEPKSt18_Rb_tree_node_base(%"struct.std::_Rb_tree_node_base"* %25), !dbg !2262
  %26 = load %"class.std::__cxx11::basic_string"*, %"class.std::__cxx11::basic_string"** %__k.addr, align 8, !dbg !2263
  %call49 = call zeroext i1 @_ZNKSt4lessINSt7__cxx1112basic_stringIcSt11char_traitsIcESaIcEEEEclERKS5_S8_(%"struct.std::less"* %_M_key_compare46, %"class.std::__cxx11::basic_string"* dereferenceable(32) %call48, %"class.std::__cxx11::basic_string"* dereferenceable(32) %26), !dbg !2258
  br i1 %call49, label %if.then50, label %if.else76, !dbg !2264

if.then50:                                        ; preds = %if.else44
  call void @llvm.dbg.declare(metadata %"struct.std::_Rb_tree_iterator"* %__after, metadata !2265, metadata !1377), !dbg !2267
  %27 = bitcast %"struct.std::_Rb_tree_iterator"* %__after to i8*, !dbg !2268
  %28 = bitcast %"struct.std::_Rb_tree_iterator"* %__pos to i8*, !dbg !2268
  call void @llvm.memcpy.p0i8.p0i8.i64(i8* %27, i8* %28, i64 8, i32 8, i1 false), !dbg !2268
  %_M_node51 = getelementptr inbounds %"struct.std::_Rb_tree_iterator", %"struct.std::_Rb_tree_iterator"* %__pos, i32 0, i32 0, !dbg !2269
  %29 = load %"struct.std::_Rb_tree_node_base"*, %"struct.std::_Rb_tree_node_base"** %_M_node51, align 8, !dbg !2269
  %call52 = call dereferenceable(8) %"struct.std::_Rb_tree_node_base"** @_ZNSt8_Rb_treeINSt7__cxx1112basic_stringIcSt11char_traitsIcESaIcEEESt4pairIKS5_iESt10_Select1stIS8_ESt4lessIS5_ESaIS8_EE12_M_rightmostEv(%"class.std::_Rb_tree"* %this1), !dbg !2271
  %30 = load %"struct.std::_Rb_tree_node_base"*, %"struct.std::_Rb_tree_node_base"** %call52, !dbg !2271
  %cmp53 = icmp eq %"struct.std::_Rb_tree_node_base"* %29, %30, !dbg !2272
  br i1 %cmp53, label %if.then54, label %if.else57, !dbg !2273

if.then54:                                        ; preds = %if.then50
  store %"struct.std::_Rb_tree_node_base"* null, %"struct.std::_Rb_tree_node_base"** %ref.tmp55, !dbg !2274
  %call56 = call dereferenceable(8) %"struct.std::_Rb_tree_node_base"** @_ZNSt8_Rb_treeINSt7__cxx1112basic_stringIcSt11char_traitsIcESaIcEEESt4pairIKS5_iESt10_Select1stIS8_ESt4lessIS5_ESaIS8_EE12_M_rightmostEv(%"class.std::_Rb_tree"* %this1), !dbg !2275
  call void @_ZNSt4pairIPSt18_Rb_tree_node_baseS1_EC2ERKS1_S4_(%"struct.std::pair.6"* %retval, %"struct.std::_Rb_tree_node_base"** dereferenceable(8) %ref.tmp55, %"struct.std::_Rb_tree_node_base"** dereferenceable(8) %call56), !dbg !2276
  br label %return, !dbg !2277

if.else57:                                        ; preds = %if.then50
  %_M_impl58 = getelementptr inbounds %"class.std::_Rb_tree", %"class.std::_Rb_tree"* %this1, i32 0, i32 0, !dbg !2278
  %_M_key_compare59 = getelementptr inbounds %"struct.std::_Rb_tree<std::__cxx11::basic_string<char>, std::pair<const std::__cxx11::basic_string<char>, int>, std::_Select1st<std::pair<const std::__cxx11::basic_string<char>, int> >, std::less<std::__cxx11::basic_string<char> >, std::allocator<std::pair<const std::__cxx11::basic_string<char>, int> > >::_Rb_tree_impl", %"struct.std::_Rb_tree<std::__cxx11::basic_string<char>, std::pair<const std::__cxx11::basic_string<char>, int>, std::_Select1st<std::pair<const std::__cxx11::basic_string<char>, int> >, std::less<std::__cxx11::basic_string<char> >, std::allocator<std::pair<const std::__cxx11::basic_string<char>, int> > >::_Rb_tree_impl"* %_M_impl58, i32 0, i32 0, !dbg !2280
  %31 = load %"class.std::__cxx11::basic_string"*, %"class.std::__cxx11::basic_string"** %__k.addr, align 8, !dbg !2281
  %call60 = call dereferenceable(8) %"struct.std::_Rb_tree_iterator"* @_ZNSt17_Rb_tree_iteratorISt4pairIKNSt7__cxx1112basic_stringIcSt11char_traitsIcESaIcEEEiEEppEv(%"struct.std::_Rb_tree_iterator"* %__after), !dbg !2282
  %_M_node61 = getelementptr inbounds %"struct.std::_Rb_tree_iterator", %"struct.std::_Rb_tree_iterator"* %call60, i32 0, i32 0, !dbg !2283
  %32 = load %"struct.std::_Rb_tree_node_base"*, %"struct.std::_Rb_tree_node_base"** %_M_node61, align 8, !dbg !2283
  %call62 = call dereferenceable(32) %"class.std::__cxx11::basic_string"* @_ZNSt8_Rb_treeINSt7__cxx1112basic_stringIcSt11char_traitsIcESaIcEEESt4pairIKS5_iESt10_Select1stIS8_ESt4lessIS5_ESaIS8_EE6_S_keyEPKSt18_Rb_tree_node_base(%"struct.std::_Rb_tree_node_base"* %32), !dbg !2284
  %call63 = call zeroext i1 @_ZNKSt4lessINSt7__cxx1112basic_stringIcSt11char_traitsIcESaIcEEEEclERKS5_S8_(%"struct.std::less"* %_M_key_compare59, %"class.std::__cxx11::basic_string"* dereferenceable(32) %31, %"class.std::__cxx11::basic_string"* dereferenceable(32) %call62), !dbg !2278
  br i1 %call63, label %if.then64, label %if.else74, !dbg !2285

if.then64:                                        ; preds = %if.else57
  %_M_node65 = getelementptr inbounds %"struct.std::_Rb_tree_iterator", %"struct.std::_Rb_tree_iterator"* %__pos, i32 0, i32 0, !dbg !2286
  %33 = load %"struct.std::_Rb_tree_node_base"*, %"struct.std::_Rb_tree_node_base"** %_M_node65, align 8, !dbg !2286
  %call66 = call %"struct.std::_Rb_tree_node"* @_ZNSt8_Rb_treeINSt7__cxx1112basic_stringIcSt11char_traitsIcESaIcEEESt4pairIKS5_iESt10_Select1stIS8_ESt4lessIS5_ESaIS8_EE8_S_rightEPSt18_Rb_tree_node_base(%"struct.std::_Rb_tree_node_base"* %33), !dbg !2289
  %cmp67 = icmp eq %"struct.std::_Rb_tree_node"* %call66, null, !dbg !2290
  br i1 %cmp67, label %if.then68, label %if.else71, !dbg !2291

if.then68:                                        ; preds = %if.then64
  store %"struct.std::_Rb_tree_node_base"* null, %"struct.std::_Rb_tree_node_base"** %ref.tmp69, !dbg !2292
  %_M_node70 = getelementptr inbounds %"struct.std::_Rb_tree_iterator", %"struct.std::_Rb_tree_iterator"* %__pos, i32 0, i32 0, !dbg !2293
  call void @_ZNSt4pairIPSt18_Rb_tree_node_baseS1_EC2ERKS1_S4_(%"struct.std::pair.6"* %retval, %"struct.std::_Rb_tree_node_base"** dereferenceable(8) %ref.tmp69, %"struct.std::_Rb_tree_node_base"** dereferenceable(8) %_M_node70), !dbg !2294
  br label %return, !dbg !2295

if.else71:                                        ; preds = %if.then64
  %_M_node72 = getelementptr inbounds %"struct.std::_Rb_tree_iterator", %"struct.std::_Rb_tree_iterator"* %__after, i32 0, i32 0, !dbg !2296
  %_M_node73 = getelementptr inbounds %"struct.std::_Rb_tree_iterator", %"struct.std::_Rb_tree_iterator"* %__after, i32 0, i32 0, !dbg !2297
  call void @_ZNSt4pairIPSt18_Rb_tree_node_baseS1_EC2ERKS1_S4_(%"struct.std::pair.6"* %retval, %"struct.std::_Rb_tree_node_base"** dereferenceable(8) %_M_node72, %"struct.std::_Rb_tree_node_base"** dereferenceable(8) %_M_node73), !dbg !2298
  br label %return, !dbg !2299

if.else74:                                        ; preds = %if.else57
  %34 = load %"class.std::__cxx11::basic_string"*, %"class.std::__cxx11::basic_string"** %__k.addr, align 8, !dbg !2300
  %call75 = call { %"struct.std::_Rb_tree_node_base"*, %"struct.std::_Rb_tree_node_base"* } @_ZNSt8_Rb_treeINSt7__cxx1112basic_stringIcSt11char_traitsIcESaIcEEESt4pairIKS5_iESt10_Select1stIS8_ESt4lessIS5_ESaIS8_EE24_M_get_insert_unique_posERS7_(%"class.std::_Rb_tree"* %this1, %"class.std::__cxx11::basic_string"* dereferenceable(32) %34), !dbg !2301
  %35 = bitcast %"struct.std::pair.6"* %retval to { %"struct.std::_Rb_tree_node_base"*, %"struct.std::_Rb_tree_node_base"* }*, !dbg !2301
  %36 = getelementptr { %"struct.std::_Rb_tree_node_base"*, %"struct.std::_Rb_tree_node_base"* }, { %"struct.std::_Rb_tree_node_base"*, %"struct.std::_Rb_tree_node_base"* }* %35, i32 0, i32 0, !dbg !2301
  %37 = extractvalue { %"struct.std::_Rb_tree_node_base"*, %"struct.std::_Rb_tree_node_base"* } %call75, 0, !dbg !2301
  store %"struct.std::_Rb_tree_node_base"* %37, %"struct.std::_Rb_tree_node_base"** %36, align 1, !dbg !2301
  %38 = getelementptr { %"struct.std::_Rb_tree_node_base"*, %"struct.std::_Rb_tree_node_base"* }, { %"struct.std::_Rb_tree_node_base"*, %"struct.std::_Rb_tree_node_base"* }* %35, i32 0, i32 1, !dbg !2301
  %39 = extractvalue { %"struct.std::_Rb_tree_node_base"*, %"struct.std::_Rb_tree_node_base"* } %call75, 1, !dbg !2301
  store %"struct.std::_Rb_tree_node_base"* %39, %"struct.std::_Rb_tree_node_base"** %38, align 1, !dbg !2301
  br label %return, !dbg !2302

if.else76:                                        ; preds = %if.else44
  %_M_node77 = getelementptr inbounds %"struct.std::_Rb_tree_iterator", %"struct.std::_Rb_tree_iterator"* %__pos, i32 0, i32 0, !dbg !2303
  store %"struct.std::_Rb_tree_node_base"* null, %"struct.std::_Rb_tree_node_base"** %ref.tmp78, !dbg !2304
  call void @_ZNSt4pairIPSt18_Rb_tree_node_baseS1_EC2ERKS1_S4_(%"struct.std::pair.6"* %retval, %"struct.std::_Rb_tree_node_base"** dereferenceable(8) %_M_node77, %"struct.std::_Rb_tree_node_base"** dereferenceable(8) %ref.tmp78), !dbg !2305
  br label %return, !dbg !2306

return:                                           ; preds = %if.else76, %if.else74, %if.else71, %if.then68, %if.then54, %if.else42, %if.else39, %if.then36, %if.then22, %if.else, %if.then9
  %40 = bitcast %"struct.std::pair.6"* %retval to { %"struct.std::_Rb_tree_node_base"*, %"struct.std::_Rb_tree_node_base"* }*, !dbg !2307
  %41 = load { %"struct.std::_Rb_tree_node_base"*, %"struct.std::_Rb_tree_node_base"* }, { %"struct.std::_Rb_tree_node_base"*, %"struct.std::_Rb_tree_node_base"* }* %40, align 1, !dbg !2307
  ret { %"struct.std::_Rb_tree_node_base"*, %"struct.std::_Rb_tree_node_base"* } %41, !dbg !2307
}

; Function Attrs: uwtable
define linkonce_odr %"struct.std::_Rb_tree_node_base"* @_ZNKSt23_Rb_tree_const_iteratorISt4pairIKNSt7__cxx1112basic_stringIcSt11char_traitsIcESaIcEEEiEE13_M_const_castEv(%"struct.std::_Rb_tree_iterator"* %this) #2 comdat align 2 {
entry:
  %retval = alloca %"struct.std::_Rb_tree_iterator", align 8
  %this.addr = alloca %"struct.std::_Rb_tree_iterator"*, align 8
  store %"struct.std::_Rb_tree_iterator"* %this, %"struct.std::_Rb_tree_iterator"** %this.addr, align 8
  call void @llvm.dbg.declare(metadata %"struct.std::_Rb_tree_iterator"** %this.addr, metadata !2308, metadata !1377), !dbg !2310
  %this1 = load %"struct.std::_Rb_tree_iterator"*, %"struct.std::_Rb_tree_iterator"** %this.addr
  %_M_node = getelementptr inbounds %"struct.std::_Rb_tree_iterator", %"struct.std::_Rb_tree_iterator"* %this1, i32 0, i32 0, !dbg !2311
  %0 = load %"struct.std::_Rb_tree_node_base"*, %"struct.std::_Rb_tree_node_base"** %_M_node, align 8, !dbg !2311
  call void @_ZNSt17_Rb_tree_iteratorISt4pairIKNSt7__cxx1112basic_stringIcSt11char_traitsIcESaIcEEEiEEC2EPSt18_Rb_tree_node_base(%"struct.std::_Rb_tree_iterator"* %retval, %"struct.std::_Rb_tree_node_base"* %0), !dbg !2312
  %coerce.dive = getelementptr %"struct.std::_Rb_tree_iterator", %"struct.std::_Rb_tree_iterator"* %retval, i32 0, i32 0, !dbg !2313
  %1 = load %"struct.std::_Rb_tree_node_base"*, %"struct.std::_Rb_tree_node_base"** %coerce.dive, !dbg !2313
  ret %"struct.std::_Rb_tree_node_base"* %1, !dbg !2313
}

; Function Attrs: nounwind uwtable
define linkonce_odr i64 @_ZNKSt8_Rb_treeINSt7__cxx1112basic_stringIcSt11char_traitsIcESaIcEEESt4pairIKS5_iESt10_Select1stIS8_ESt4lessIS5_ESaIS8_EE4sizeEv(%"class.std::_Rb_tree"* %this) #0 comdat align 2 {
entry:
  %this.addr = alloca %"class.std::_Rb_tree"*, align 8
  store %"class.std::_Rb_tree"* %this, %"class.std::_Rb_tree"** %this.addr, align 8
  call void @llvm.dbg.declare(metadata %"class.std::_Rb_tree"** %this.addr, metadata !2314, metadata !1377), !dbg !2315
  %this1 = load %"class.std::_Rb_tree"*, %"class.std::_Rb_tree"** %this.addr
  %_M_impl = getelementptr inbounds %"class.std::_Rb_tree", %"class.std::_Rb_tree"* %this1, i32 0, i32 0, !dbg !2316
  %_M_node_count = getelementptr inbounds %"struct.std::_Rb_tree<std::__cxx11::basic_string<char>, std::pair<const std::__cxx11::basic_string<char>, int>, std::_Select1st<std::pair<const std::__cxx11::basic_string<char>, int> >, std::less<std::__cxx11::basic_string<char> >, std::allocator<std::pair<const std::__cxx11::basic_string<char>, int> > >::_Rb_tree_impl", %"struct.std::_Rb_tree<std::__cxx11::basic_string<char>, std::pair<const std::__cxx11::basic_string<char>, int>, std::_Select1st<std::pair<const std::__cxx11::basic_string<char>, int> >, std::less<std::__cxx11::basic_string<char> >, std::allocator<std::pair<const std::__cxx11::basic_string<char>, int> > >::_Rb_tree_impl"* %_M_impl, i32 0, i32 2, !dbg !2317
  %0 = load i64, i64* %_M_node_count, align 8, !dbg !2317
  ret i64 %0, !dbg !2318
}

; Function Attrs: nounwind uwtable
define linkonce_odr dereferenceable(8) %"struct.std::_Rb_tree_node_base"** @_ZNSt8_Rb_treeINSt7__cxx1112basic_stringIcSt11char_traitsIcESaIcEEESt4pairIKS5_iESt10_Select1stIS8_ESt4lessIS5_ESaIS8_EE12_M_rightmostEv(%"class.std::_Rb_tree"* %this) #0 comdat align 2 {
entry:
  %this.addr = alloca %"class.std::_Rb_tree"*, align 8
  store %"class.std::_Rb_tree"* %this, %"class.std::_Rb_tree"** %this.addr, align 8
  call void @llvm.dbg.declare(metadata %"class.std::_Rb_tree"** %this.addr, metadata !2319, metadata !1377), !dbg !2320
  %this1 = load %"class.std::_Rb_tree"*, %"class.std::_Rb_tree"** %this.addr
  %_M_impl = getelementptr inbounds %"class.std::_Rb_tree", %"class.std::_Rb_tree"* %this1, i32 0, i32 0, !dbg !2321
  %_M_header = getelementptr inbounds %"struct.std::_Rb_tree<std::__cxx11::basic_string<char>, std::pair<const std::__cxx11::basic_string<char>, int>, std::_Select1st<std::pair<const std::__cxx11::basic_string<char>, int> >, std::less<std::__cxx11::basic_string<char> >, std::allocator<std::pair<const std::__cxx11::basic_string<char>, int> > >::_Rb_tree_impl", %"struct.std::_Rb_tree<std::__cxx11::basic_string<char>, std::pair<const std::__cxx11::basic_string<char>, int>, std::_Select1st<std::pair<const std::__cxx11::basic_string<char>, int> >, std::less<std::__cxx11::basic_string<char> >, std::allocator<std::pair<const std::__cxx11::basic_string<char>, int> > >::_Rb_tree_impl"* %_M_impl, i32 0, i32 1, !dbg !2322
  %_M_right = getelementptr inbounds %"struct.std::_Rb_tree_node_base", %"struct.std::_Rb_tree_node_base"* %_M_header, i32 0, i32 3, !dbg !2323
  ret %"struct.std::_Rb_tree_node_base"** %_M_right, !dbg !2324
}

; Function Attrs: nounwind uwtable
define linkonce_odr void @_ZNSt4pairIPSt18_Rb_tree_node_baseS1_EC2ERKS1_S4_(%"struct.std::pair.6"* %this, %"struct.std::_Rb_tree_node_base"** dereferenceable(8) %__a, %"struct.std::_Rb_tree_node_base"** dereferenceable(8) %__b) unnamed_addr #0 comdat align 2 {
entry:
  %this.addr = alloca %"struct.std::pair.6"*, align 8
  %__a.addr = alloca %"struct.std::_Rb_tree_node_base"**, align 8
  %__b.addr = alloca %"struct.std::_Rb_tree_node_base"**, align 8
  store %"struct.std::pair.6"* %this, %"struct.std::pair.6"** %this.addr, align 8
  call void @llvm.dbg.declare(metadata %"struct.std::pair.6"** %this.addr, metadata !2325, metadata !1377), !dbg !2327
  store %"struct.std::_Rb_tree_node_base"** %__a, %"struct.std::_Rb_tree_node_base"*** %__a.addr, align 8
  call void @llvm.dbg.declare(metadata %"struct.std::_Rb_tree_node_base"*** %__a.addr, metadata !2328, metadata !1377), !dbg !2329
  store %"struct.std::_Rb_tree_node_base"** %__b, %"struct.std::_Rb_tree_node_base"*** %__b.addr, align 8
  call void @llvm.dbg.declare(metadata %"struct.std::_Rb_tree_node_base"*** %__b.addr, metadata !2330, metadata !1377), !dbg !2331
  %this1 = load %"struct.std::pair.6"*, %"struct.std::pair.6"** %this.addr
  %first = getelementptr inbounds %"struct.std::pair.6", %"struct.std::pair.6"* %this1, i32 0, i32 0, !dbg !2332
  %0 = load %"struct.std::_Rb_tree_node_base"**, %"struct.std::_Rb_tree_node_base"*** %__a.addr, align 8, !dbg !2333
  %1 = load %"struct.std::_Rb_tree_node_base"*, %"struct.std::_Rb_tree_node_base"** %0, align 8, !dbg !2333
  store %"struct.std::_Rb_tree_node_base"* %1, %"struct.std::_Rb_tree_node_base"** %first, align 8, !dbg !2332
  %second = getelementptr inbounds %"struct.std::pair.6", %"struct.std::pair.6"* %this1, i32 0, i32 1, !dbg !2334
  %2 = load %"struct.std::_Rb_tree_node_base"**, %"struct.std::_Rb_tree_node_base"*** %__b.addr, align 8, !dbg !2335
  %3 = load %"struct.std::_Rb_tree_node_base"*, %"struct.std::_Rb_tree_node_base"** %2, align 8, !dbg !2335
  store %"struct.std::_Rb_tree_node_base"* %3, %"struct.std::_Rb_tree_node_base"** %second, align 8, !dbg !2334
  ret void, !dbg !2336
}

; Function Attrs: uwtable
define linkonce_odr { %"struct.std::_Rb_tree_node_base"*, %"struct.std::_Rb_tree_node_base"* } @_ZNSt8_Rb_treeINSt7__cxx1112basic_stringIcSt11char_traitsIcESaIcEEESt4pairIKS5_iESt10_Select1stIS8_ESt4lessIS5_ESaIS8_EE24_M_get_insert_unique_posERS7_(%"class.std::_Rb_tree"* %this, %"class.std::__cxx11::basic_string"* dereferenceable(32) %__k) #2 comdat align 2 {
entry:
  %retval = alloca %"struct.std::pair.6", align 8
  %this.addr = alloca %"class.std::_Rb_tree"*, align 8
  %__k.addr = alloca %"class.std::__cxx11::basic_string"*, align 8
  %__x = alloca %"struct.std::_Rb_tree_node"*, align 8
  %__y = alloca %"struct.std::_Rb_tree_node"*, align 8
  %__comp = alloca i8, align 1
  %__j = alloca %"struct.std::_Rb_tree_iterator", align 8
  %ref.tmp = alloca %"struct.std::_Rb_tree_iterator", align 8
  %ref.tmp11 = alloca %"struct.std::_Rb_tree_node_base"*, align 8
  %ref.tmp12 = alloca %"struct.std::_Rb_tree_node_base"*, align 8
  %ref.tmp20 = alloca %"struct.std::_Rb_tree_node_base"*, align 8
  %ref.tmp21 = alloca %"struct.std::_Rb_tree_node_base"*, align 8
  %ref.tmp24 = alloca %"struct.std::_Rb_tree_node_base"*, align 8
  store %"class.std::_Rb_tree"* %this, %"class.std::_Rb_tree"** %this.addr, align 8
  call void @llvm.dbg.declare(metadata %"class.std::_Rb_tree"** %this.addr, metadata !2337, metadata !1377), !dbg !2338
  store %"class.std::__cxx11::basic_string"* %__k, %"class.std::__cxx11::basic_string"** %__k.addr, align 8
  call void @llvm.dbg.declare(metadata %"class.std::__cxx11::basic_string"** %__k.addr, metadata !2339, metadata !1377), !dbg !2340
  %this1 = load %"class.std::_Rb_tree"*, %"class.std::_Rb_tree"** %this.addr
  call void @llvm.dbg.declare(metadata %"struct.std::_Rb_tree_node"** %__x, metadata !2341, metadata !1377), !dbg !2342
  %call = call %"struct.std::_Rb_tree_node"* @_ZNSt8_Rb_treeINSt7__cxx1112basic_stringIcSt11char_traitsIcESaIcEEESt4pairIKS5_iESt10_Select1stIS8_ESt4lessIS5_ESaIS8_EE8_M_beginEv(%"class.std::_Rb_tree"* %this1), !dbg !2343
  store %"struct.std::_Rb_tree_node"* %call, %"struct.std::_Rb_tree_node"** %__x, align 8, !dbg !2342
  call void @llvm.dbg.declare(metadata %"struct.std::_Rb_tree_node"** %__y, metadata !2344, metadata !1377), !dbg !2345
  %call2 = call %"struct.std::_Rb_tree_node"* @_ZNSt8_Rb_treeINSt7__cxx1112basic_stringIcSt11char_traitsIcESaIcEEESt4pairIKS5_iESt10_Select1stIS8_ESt4lessIS5_ESaIS8_EE6_M_endEv(%"class.std::_Rb_tree"* %this1), !dbg !2346
  store %"struct.std::_Rb_tree_node"* %call2, %"struct.std::_Rb_tree_node"** %__y, align 8, !dbg !2345
  call void @llvm.dbg.declare(metadata i8* %__comp, metadata !2347, metadata !1377), !dbg !2348
  store i8 1, i8* %__comp, align 1, !dbg !2348
  br label %while.cond, !dbg !2349

while.cond:                                       ; preds = %cond.end, %entry
  %0 = load %"struct.std::_Rb_tree_node"*, %"struct.std::_Rb_tree_node"** %__x, align 8, !dbg !2350
  %cmp = icmp ne %"struct.std::_Rb_tree_node"* %0, null, !dbg !2353
  br i1 %cmp, label %while.body, label %while.end, !dbg !2349

while.body:                                       ; preds = %while.cond
  %1 = load %"struct.std::_Rb_tree_node"*, %"struct.std::_Rb_tree_node"** %__x, align 8, !dbg !2354
  store %"struct.std::_Rb_tree_node"* %1, %"struct.std::_Rb_tree_node"** %__y, align 8, !dbg !2356
  %_M_impl = getelementptr inbounds %"class.std::_Rb_tree", %"class.std::_Rb_tree"* %this1, i32 0, i32 0, !dbg !2357
  %_M_key_compare = getelementptr inbounds %"struct.std::_Rb_tree<std::__cxx11::basic_string<char>, std::pair<const std::__cxx11::basic_string<char>, int>, std::_Select1st<std::pair<const std::__cxx11::basic_string<char>, int> >, std::less<std::__cxx11::basic_string<char> >, std::allocator<std::pair<const std::__cxx11::basic_string<char>, int> > >::_Rb_tree_impl", %"struct.std::_Rb_tree<std::__cxx11::basic_string<char>, std::pair<const std::__cxx11::basic_string<char>, int>, std::_Select1st<std::pair<const std::__cxx11::basic_string<char>, int> >, std::less<std::__cxx11::basic_string<char> >, std::allocator<std::pair<const std::__cxx11::basic_string<char>, int> > >::_Rb_tree_impl"* %_M_impl, i32 0, i32 0, !dbg !2358
  %2 = load %"class.std::__cxx11::basic_string"*, %"class.std::__cxx11::basic_string"** %__k.addr, align 8, !dbg !2359
  %3 = load %"struct.std::_Rb_tree_node"*, %"struct.std::_Rb_tree_node"** %__x, align 8, !dbg !2360
  %call3 = call dereferenceable(32) %"class.std::__cxx11::basic_string"* @_ZNSt8_Rb_treeINSt7__cxx1112basic_stringIcSt11char_traitsIcESaIcEEESt4pairIKS5_iESt10_Select1stIS8_ESt4lessIS5_ESaIS8_EE6_S_keyEPKSt13_Rb_tree_nodeIS8_E(%"struct.std::_Rb_tree_node"* %3), !dbg !2361
  %call4 = call zeroext i1 @_ZNKSt4lessINSt7__cxx1112basic_stringIcSt11char_traitsIcESaIcEEEEclERKS5_S8_(%"struct.std::less"* %_M_key_compare, %"class.std::__cxx11::basic_string"* dereferenceable(32) %2, %"class.std::__cxx11::basic_string"* dereferenceable(32) %call3), !dbg !2357
  %frombool = zext i1 %call4 to i8, !dbg !2362
  store i8 %frombool, i8* %__comp, align 1, !dbg !2362
  %4 = load i8, i8* %__comp, align 1, !dbg !2363
  %tobool = trunc i8 %4 to i1, !dbg !2363
  br i1 %tobool, label %cond.true, label %cond.false, !dbg !2363

cond.true:                                        ; preds = %while.body
  %5 = load %"struct.std::_Rb_tree_node"*, %"struct.std::_Rb_tree_node"** %__x, align 8, !dbg !2364
  %6 = bitcast %"struct.std::_Rb_tree_node"* %5 to %"struct.std::_Rb_tree_node_base"*, !dbg !2364
  %call5 = call %"struct.std::_Rb_tree_node"* @_ZNSt8_Rb_treeINSt7__cxx1112basic_stringIcSt11char_traitsIcESaIcEEESt4pairIKS5_iESt10_Select1stIS8_ESt4lessIS5_ESaIS8_EE7_S_leftEPSt18_Rb_tree_node_base(%"struct.std::_Rb_tree_node_base"* %6), !dbg !2366
  br label %cond.end, !dbg !2363

cond.false:                                       ; preds = %while.body
  %7 = load %"struct.std::_Rb_tree_node"*, %"struct.std::_Rb_tree_node"** %__x, align 8, !dbg !2367
  %8 = bitcast %"struct.std::_Rb_tree_node"* %7 to %"struct.std::_Rb_tree_node_base"*, !dbg !2367
  %call6 = call %"struct.std::_Rb_tree_node"* @_ZNSt8_Rb_treeINSt7__cxx1112basic_stringIcSt11char_traitsIcESaIcEEESt4pairIKS5_iESt10_Select1stIS8_ESt4lessIS5_ESaIS8_EE8_S_rightEPSt18_Rb_tree_node_base(%"struct.std::_Rb_tree_node_base"* %8), !dbg !2369
  br label %cond.end, !dbg !2363

cond.end:                                         ; preds = %cond.false, %cond.true
  %cond = phi %"struct.std::_Rb_tree_node"* [ %call5, %cond.true ], [ %call6, %cond.false ], !dbg !2363
  store %"struct.std::_Rb_tree_node"* %cond, %"struct.std::_Rb_tree_node"** %__x, align 8, !dbg !2370
  br label %while.cond, !dbg !2349

while.end:                                        ; preds = %while.cond
  call void @llvm.dbg.declare(metadata %"struct.std::_Rb_tree_iterator"* %__j, metadata !2373, metadata !1377), !dbg !2374
  %9 = load %"struct.std::_Rb_tree_node"*, %"struct.std::_Rb_tree_node"** %__y, align 8, !dbg !2375
  %10 = bitcast %"struct.std::_Rb_tree_node"* %9 to %"struct.std::_Rb_tree_node_base"*, !dbg !2375
  call void @_ZNSt17_Rb_tree_iteratorISt4pairIKNSt7__cxx1112basic_stringIcSt11char_traitsIcESaIcEEEiEEC2EPSt18_Rb_tree_node_base(%"struct.std::_Rb_tree_iterator"* %__j, %"struct.std::_Rb_tree_node_base"* %10), !dbg !2376
  %11 = load i8, i8* %__comp, align 1, !dbg !2377
  %tobool7 = trunc i8 %11 to i1, !dbg !2377
  br i1 %tobool7, label %if.then, label %if.end14, !dbg !2379

if.then:                                          ; preds = %while.end
  %call8 = call %"struct.std::_Rb_tree_node_base"* @_ZNSt8_Rb_treeINSt7__cxx1112basic_stringIcSt11char_traitsIcESaIcEEESt4pairIKS5_iESt10_Select1stIS8_ESt4lessIS5_ESaIS8_EE5beginEv(%"class.std::_Rb_tree"* %this1), !dbg !2380
  %coerce.dive = getelementptr %"struct.std::_Rb_tree_iterator", %"struct.std::_Rb_tree_iterator"* %ref.tmp, i32 0, i32 0, !dbg !2380
  store %"struct.std::_Rb_tree_node_base"* %call8, %"struct.std::_Rb_tree_node_base"** %coerce.dive, !dbg !2380
  %call9 = call zeroext i1 @_ZNKSt17_Rb_tree_iteratorISt4pairIKNSt7__cxx1112basic_stringIcSt11char_traitsIcESaIcEEEiEEeqERKS9_(%"struct.std::_Rb_tree_iterator"* %__j, %"struct.std::_Rb_tree_iterator"* dereferenceable(8) %ref.tmp), !dbg !2383
  br i1 %call9, label %if.then10, label %if.else, !dbg !2384

if.then10:                                        ; preds = %if.then
  %12 = load %"struct.std::_Rb_tree_node"*, %"struct.std::_Rb_tree_node"** %__x, align 8, !dbg !2385
  %13 = bitcast %"struct.std::_Rb_tree_node"* %12 to %"struct.std::_Rb_tree_node_base"*, !dbg !2385
  store %"struct.std::_Rb_tree_node_base"* %13, %"struct.std::_Rb_tree_node_base"** %ref.tmp11, !dbg !2385
  %14 = load %"struct.std::_Rb_tree_node"*, %"struct.std::_Rb_tree_node"** %__y, align 8, !dbg !2386
  %15 = bitcast %"struct.std::_Rb_tree_node"* %14 to %"struct.std::_Rb_tree_node_base"*, !dbg !2386
  store %"struct.std::_Rb_tree_node_base"* %15, %"struct.std::_Rb_tree_node_base"** %ref.tmp12, !dbg !2386
  call void @_ZNSt4pairIPSt18_Rb_tree_node_baseS1_EC2ERKS1_S4_(%"struct.std::pair.6"* %retval, %"struct.std::_Rb_tree_node_base"** dereferenceable(8) %ref.tmp11, %"struct.std::_Rb_tree_node_base"** dereferenceable(8) %ref.tmp12), !dbg !2387
  br label %return, !dbg !2388

if.else:                                          ; preds = %if.then
  %call13 = call dereferenceable(8) %"struct.std::_Rb_tree_iterator"* @_ZNSt17_Rb_tree_iteratorISt4pairIKNSt7__cxx1112basic_stringIcSt11char_traitsIcESaIcEEEiEEmmEv(%"struct.std::_Rb_tree_iterator"* %__j), !dbg !2389
  br label %if.end

if.end:                                           ; preds = %if.else
  br label %if.end14, !dbg !2390

if.end14:                                         ; preds = %if.end, %while.end
  %_M_impl15 = getelementptr inbounds %"class.std::_Rb_tree", %"class.std::_Rb_tree"* %this1, i32 0, i32 0, !dbg !2391
  %_M_key_compare16 = getelementptr inbounds %"struct.std::_Rb_tree<std::__cxx11::basic_string<char>, std::pair<const std::__cxx11::basic_string<char>, int>, std::_Select1st<std::pair<const std::__cxx11::basic_string<char>, int> >, std::less<std::__cxx11::basic_string<char> >, std::allocator<std::pair<const std::__cxx11::basic_string<char>, int> > >::_Rb_tree_impl", %"struct.std::_Rb_tree<std::__cxx11::basic_string<char>, std::pair<const std::__cxx11::basic_string<char>, int>, std::_Select1st<std::pair<const std::__cxx11::basic_string<char>, int> >, std::less<std::__cxx11::basic_string<char> >, std::allocator<std::pair<const std::__cxx11::basic_string<char>, int> > >::_Rb_tree_impl"* %_M_impl15, i32 0, i32 0, !dbg !2393
  %_M_node = getelementptr inbounds %"struct.std::_Rb_tree_iterator", %"struct.std::_Rb_tree_iterator"* %__j, i32 0, i32 0, !dbg !2394
  %16 = load %"struct.std::_Rb_tree_node_base"*, %"struct.std::_Rb_tree_node_base"** %_M_node, align 8, !dbg !2394
  %call17 = call dereferenceable(32) %"class.std::__cxx11::basic_string"* @_ZNSt8_Rb_treeINSt7__cxx1112basic_stringIcSt11char_traitsIcESaIcEEESt4pairIKS5_iESt10_Select1stIS8_ESt4lessIS5_ESaIS8_EE6_S_keyEPKSt18_Rb_tree_node_base(%"struct.std::_Rb_tree_node_base"* %16), !dbg !2395
  %17 = load %"class.std::__cxx11::basic_string"*, %"class.std::__cxx11::basic_string"** %__k.addr, align 8, !dbg !2396
  %call18 = call zeroext i1 @_ZNKSt4lessINSt7__cxx1112basic_stringIcSt11char_traitsIcESaIcEEEEclERKS5_S8_(%"struct.std::less"* %_M_key_compare16, %"class.std::__cxx11::basic_string"* dereferenceable(32) %call17, %"class.std::__cxx11::basic_string"* dereferenceable(32) %17), !dbg !2391
  br i1 %call18, label %if.then19, label %if.end22, !dbg !2397

if.then19:                                        ; preds = %if.end14
  %18 = load %"struct.std::_Rb_tree_node"*, %"struct.std::_Rb_tree_node"** %__x, align 8, !dbg !2398
  %19 = bitcast %"struct.std::_Rb_tree_node"* %18 to %"struct.std::_Rb_tree_node_base"*, !dbg !2398
  store %"struct.std::_Rb_tree_node_base"* %19, %"struct.std::_Rb_tree_node_base"** %ref.tmp20, !dbg !2398
  %20 = load %"struct.std::_Rb_tree_node"*, %"struct.std::_Rb_tree_node"** %__y, align 8, !dbg !2399
  %21 = bitcast %"struct.std::_Rb_tree_node"* %20 to %"struct.std::_Rb_tree_node_base"*, !dbg !2399
  store %"struct.std::_Rb_tree_node_base"* %21, %"struct.std::_Rb_tree_node_base"** %ref.tmp21, !dbg !2399
  call void @_ZNSt4pairIPSt18_Rb_tree_node_baseS1_EC2ERKS1_S4_(%"struct.std::pair.6"* %retval, %"struct.std::_Rb_tree_node_base"** dereferenceable(8) %ref.tmp20, %"struct.std::_Rb_tree_node_base"** dereferenceable(8) %ref.tmp21), !dbg !2400
  br label %return, !dbg !2401

if.end22:                                         ; preds = %if.end14
  %_M_node23 = getelementptr inbounds %"struct.std::_Rb_tree_iterator", %"struct.std::_Rb_tree_iterator"* %__j, i32 0, i32 0, !dbg !2402
  store %"struct.std::_Rb_tree_node_base"* null, %"struct.std::_Rb_tree_node_base"** %ref.tmp24, !dbg !2403
  call void @_ZNSt4pairIPSt18_Rb_tree_node_baseS1_EC2ERKS1_S4_(%"struct.std::pair.6"* %retval, %"struct.std::_Rb_tree_node_base"** dereferenceable(8) %_M_node23, %"struct.std::_Rb_tree_node_base"** dereferenceable(8) %ref.tmp24), !dbg !2404
  br label %return, !dbg !2405

return:                                           ; preds = %if.end22, %if.then19, %if.then10
  %22 = bitcast %"struct.std::pair.6"* %retval to { %"struct.std::_Rb_tree_node_base"*, %"struct.std::_Rb_tree_node_base"* }*, !dbg !2406
  %23 = load { %"struct.std::_Rb_tree_node_base"*, %"struct.std::_Rb_tree_node_base"* }, { %"struct.std::_Rb_tree_node_base"*, %"struct.std::_Rb_tree_node_base"* }* %22, align 1, !dbg !2406
  ret { %"struct.std::_Rb_tree_node_base"*, %"struct.std::_Rb_tree_node_base"* } %23, !dbg !2406
}

; Function Attrs: uwtable
define linkonce_odr %"struct.std::_Rb_tree_node_base"* @_ZNSt8_Rb_treeINSt7__cxx1112basic_stringIcSt11char_traitsIcESaIcEEESt4pairIKS5_iESt10_Select1stIS8_ESt4lessIS5_ESaIS8_EE5beginEv(%"class.std::_Rb_tree"* %this) #2 comdat align 2 {
entry:
  %retval = alloca %"struct.std::_Rb_tree_iterator", align 8
  %this.addr = alloca %"class.std::_Rb_tree"*, align 8
  store %"class.std::_Rb_tree"* %this, %"class.std::_Rb_tree"** %this.addr, align 8
  call void @llvm.dbg.declare(metadata %"class.std::_Rb_tree"** %this.addr, metadata !2407, metadata !1377), !dbg !2408
  %this1 = load %"class.std::_Rb_tree"*, %"class.std::_Rb_tree"** %this.addr
  %_M_impl = getelementptr inbounds %"class.std::_Rb_tree", %"class.std::_Rb_tree"* %this1, i32 0, i32 0, !dbg !2409
  %_M_header = getelementptr inbounds %"struct.std::_Rb_tree<std::__cxx11::basic_string<char>, std::pair<const std::__cxx11::basic_string<char>, int>, std::_Select1st<std::pair<const std::__cxx11::basic_string<char>, int> >, std::less<std::__cxx11::basic_string<char> >, std::allocator<std::pair<const std::__cxx11::basic_string<char>, int> > >::_Rb_tree_impl", %"struct.std::_Rb_tree<std::__cxx11::basic_string<char>, std::pair<const std::__cxx11::basic_string<char>, int>, std::_Select1st<std::pair<const std::__cxx11::basic_string<char>, int> >, std::less<std::__cxx11::basic_string<char> >, std::allocator<std::pair<const std::__cxx11::basic_string<char>, int> > >::_Rb_tree_impl"* %_M_impl, i32 0, i32 1, !dbg !2410
  %_M_left = getelementptr inbounds %"struct.std::_Rb_tree_node_base", %"struct.std::_Rb_tree_node_base"* %_M_header, i32 0, i32 2, !dbg !2411
  %0 = load %"struct.std::_Rb_tree_node_base"*, %"struct.std::_Rb_tree_node_base"** %_M_left, align 8, !dbg !2411
  call void @_ZNSt17_Rb_tree_iteratorISt4pairIKNSt7__cxx1112basic_stringIcSt11char_traitsIcESaIcEEEiEEC2EPSt18_Rb_tree_node_base(%"struct.std::_Rb_tree_iterator"* %retval, %"struct.std::_Rb_tree_node_base"* %0), !dbg !2412
  %coerce.dive = getelementptr %"struct.std::_Rb_tree_iterator", %"struct.std::_Rb_tree_iterator"* %retval, i32 0, i32 0, !dbg !2413
  %1 = load %"struct.std::_Rb_tree_node_base"*, %"struct.std::_Rb_tree_node_base"** %coerce.dive, !dbg !2413
  ret %"struct.std::_Rb_tree_node_base"* %1, !dbg !2413
}

; Function Attrs: nounwind uwtable
define linkonce_odr dereferenceable(8) %"struct.std::_Rb_tree_node_base"** @_ZNSt8_Rb_treeINSt7__cxx1112basic_stringIcSt11char_traitsIcESaIcEEESt4pairIKS5_iESt10_Select1stIS8_ESt4lessIS5_ESaIS8_EE11_M_leftmostEv(%"class.std::_Rb_tree"* %this) #0 comdat align 2 {
entry:
  %this.addr = alloca %"class.std::_Rb_tree"*, align 8
  store %"class.std::_Rb_tree"* %this, %"class.std::_Rb_tree"** %this.addr, align 8
  call void @llvm.dbg.declare(metadata %"class.std::_Rb_tree"** %this.addr, metadata !2414, metadata !1377), !dbg !2415
  %this1 = load %"class.std::_Rb_tree"*, %"class.std::_Rb_tree"** %this.addr
  %_M_impl = getelementptr inbounds %"class.std::_Rb_tree", %"class.std::_Rb_tree"* %this1, i32 0, i32 0, !dbg !2416
  %_M_header = getelementptr inbounds %"struct.std::_Rb_tree<std::__cxx11::basic_string<char>, std::pair<const std::__cxx11::basic_string<char>, int>, std::_Select1st<std::pair<const std::__cxx11::basic_string<char>, int> >, std::less<std::__cxx11::basic_string<char> >, std::allocator<std::pair<const std::__cxx11::basic_string<char>, int> > >::_Rb_tree_impl", %"struct.std::_Rb_tree<std::__cxx11::basic_string<char>, std::pair<const std::__cxx11::basic_string<char>, int>, std::_Select1st<std::pair<const std::__cxx11::basic_string<char>, int> >, std::less<std::__cxx11::basic_string<char> >, std::allocator<std::pair<const std::__cxx11::basic_string<char>, int> > >::_Rb_tree_impl"* %_M_impl, i32 0, i32 1, !dbg !2417
  %_M_left = getelementptr inbounds %"struct.std::_Rb_tree_node_base", %"struct.std::_Rb_tree_node_base"* %_M_header, i32 0, i32 2, !dbg !2418
  ret %"struct.std::_Rb_tree_node_base"** %_M_left, !dbg !2419
}

; Function Attrs: nounwind uwtable
define linkonce_odr dereferenceable(8) %"struct.std::_Rb_tree_iterator"* @_ZNSt17_Rb_tree_iteratorISt4pairIKNSt7__cxx1112basic_stringIcSt11char_traitsIcESaIcEEEiEEmmEv(%"struct.std::_Rb_tree_iterator"* %this) #0 comdat align 2 {
entry:
  %this.addr = alloca %"struct.std::_Rb_tree_iterator"*, align 8
  store %"struct.std::_Rb_tree_iterator"* %this, %"struct.std::_Rb_tree_iterator"** %this.addr, align 8
  call void @llvm.dbg.declare(metadata %"struct.std::_Rb_tree_iterator"** %this.addr, metadata !2420, metadata !1377), !dbg !2421
  %this1 = load %"struct.std::_Rb_tree_iterator"*, %"struct.std::_Rb_tree_iterator"** %this.addr
  %_M_node = getelementptr inbounds %"struct.std::_Rb_tree_iterator", %"struct.std::_Rb_tree_iterator"* %this1, i32 0, i32 0, !dbg !2422
  %0 = load %"struct.std::_Rb_tree_node_base"*, %"struct.std::_Rb_tree_node_base"** %_M_node, align 8, !dbg !2422
  %call = call %"struct.std::_Rb_tree_node_base"* @_ZSt18_Rb_tree_decrementPSt18_Rb_tree_node_base(%"struct.std::_Rb_tree_node_base"* %0) #13, !dbg !2423
  %_M_node2 = getelementptr inbounds %"struct.std::_Rb_tree_iterator", %"struct.std::_Rb_tree_iterator"* %this1, i32 0, i32 0, !dbg !2424
  store %"struct.std::_Rb_tree_node_base"* %call, %"struct.std::_Rb_tree_node_base"** %_M_node2, align 8, !dbg !2425
  ret %"struct.std::_Rb_tree_iterator"* %this1, !dbg !2426
}

; Function Attrs: nounwind uwtable
define linkonce_odr dereferenceable(8) %"struct.std::_Rb_tree_iterator"* @_ZNSt17_Rb_tree_iteratorISt4pairIKNSt7__cxx1112basic_stringIcSt11char_traitsIcESaIcEEEiEEppEv(%"struct.std::_Rb_tree_iterator"* %this) #0 comdat align 2 {
entry:
  %this.addr = alloca %"struct.std::_Rb_tree_iterator"*, align 8
  store %"struct.std::_Rb_tree_iterator"* %this, %"struct.std::_Rb_tree_iterator"** %this.addr, align 8
  call void @llvm.dbg.declare(metadata %"struct.std::_Rb_tree_iterator"** %this.addr, metadata !2427, metadata !1377), !dbg !2428
  %this1 = load %"struct.std::_Rb_tree_iterator"*, %"struct.std::_Rb_tree_iterator"** %this.addr
  %_M_node = getelementptr inbounds %"struct.std::_Rb_tree_iterator", %"struct.std::_Rb_tree_iterator"* %this1, i32 0, i32 0, !dbg !2429
  %0 = load %"struct.std::_Rb_tree_node_base"*, %"struct.std::_Rb_tree_node_base"** %_M_node, align 8, !dbg !2429
  %call = call %"struct.std::_Rb_tree_node_base"* @_ZSt18_Rb_tree_incrementPSt18_Rb_tree_node_base(%"struct.std::_Rb_tree_node_base"* %0) #13, !dbg !2430
  %_M_node2 = getelementptr inbounds %"struct.std::_Rb_tree_iterator", %"struct.std::_Rb_tree_iterator"* %this1, i32 0, i32 0, !dbg !2431
  store %"struct.std::_Rb_tree_node_base"* %call, %"struct.std::_Rb_tree_node_base"** %_M_node2, align 8, !dbg !2432
  ret %"struct.std::_Rb_tree_iterator"* %this1, !dbg !2433
}

; Function Attrs: uwtable
define linkonce_odr %"struct.std::_Rb_tree_node_base"* @_ZNSt8_Rb_treeINSt7__cxx1112basic_stringIcSt11char_traitsIcESaIcEEESt4pairIKS5_iESt10_Select1stIS8_ESt4lessIS5_ESaIS8_EE10_M_insert_INSE_11_Alloc_nodeEEESt17_Rb_tree_iteratorIS8_EPSt18_Rb_tree_node_baseSK_RKS8_RT_(%"class.std::_Rb_tree"* %this, %"struct.std::_Rb_tree_node_base"* %__x, %"struct.std::_Rb_tree_node_base"* %__p, %"struct.std::pair"* dereferenceable(40) %__v, %"struct.std::_Rb_tree<std::__cxx11::basic_string<char>, std::pair<const std::__cxx11::basic_string<char>, int>, std::_Select1st<std::pair<const std::__cxx11::basic_string<char>, int> >, std::less<std::__cxx11::basic_string<char> >, std::allocator<std::pair<const std::__cxx11::basic_string<char>, int> > >::_Alloc_node"* dereferenceable(8) %__node_gen) #2 comdat align 2 {
entry:
  %retval = alloca %"struct.std::_Rb_tree_iterator", align 8
  %this.addr = alloca %"class.std::_Rb_tree"*, align 8
  %__x.addr = alloca %"struct.std::_Rb_tree_node_base"*, align 8
  %__p.addr = alloca %"struct.std::_Rb_tree_node_base"*, align 8
  %__v.addr = alloca %"struct.std::pair"*, align 8
  %__node_gen.addr = alloca %"struct.std::_Rb_tree<std::__cxx11::basic_string<char>, std::pair<const std::__cxx11::basic_string<char>, int>, std::_Select1st<std::pair<const std::__cxx11::basic_string<char>, int> >, std::less<std::__cxx11::basic_string<char> >, std::allocator<std::pair<const std::__cxx11::basic_string<char>, int> > >::_Alloc_node"*, align 8
  %__insert_left = alloca i8, align 1
  %tmp = alloca %"struct.std::less", align 1
  %__z = alloca %"struct.std::_Rb_tree_node"*, align 8
  store %"class.std::_Rb_tree"* %this, %"class.std::_Rb_tree"** %this.addr, align 8
  call void @llvm.dbg.declare(metadata %"class.std::_Rb_tree"** %this.addr, metadata !2434, metadata !1377), !dbg !2435
  store %"struct.std::_Rb_tree_node_base"* %__x, %"struct.std::_Rb_tree_node_base"** %__x.addr, align 8
  call void @llvm.dbg.declare(metadata %"struct.std::_Rb_tree_node_base"** %__x.addr, metadata !2436, metadata !1377), !dbg !2437
  store %"struct.std::_Rb_tree_node_base"* %__p, %"struct.std::_Rb_tree_node_base"** %__p.addr, align 8
  call void @llvm.dbg.declare(metadata %"struct.std::_Rb_tree_node_base"** %__p.addr, metadata !2438, metadata !1377), !dbg !2439
  store %"struct.std::pair"* %__v, %"struct.std::pair"** %__v.addr, align 8
  call void @llvm.dbg.declare(metadata %"struct.std::pair"** %__v.addr, metadata !2440, metadata !1377), !dbg !2441
  store %"struct.std::_Rb_tree<std::__cxx11::basic_string<char>, std::pair<const std::__cxx11::basic_string<char>, int>, std::_Select1st<std::pair<const std::__cxx11::basic_string<char>, int> >, std::less<std::__cxx11::basic_string<char> >, std::allocator<std::pair<const std::__cxx11::basic_string<char>, int> > >::_Alloc_node"* %__node_gen, %"struct.std::_Rb_tree<std::__cxx11::basic_string<char>, std::pair<const std::__cxx11::basic_string<char>, int>, std::_Select1st<std::pair<const std::__cxx11::basic_string<char>, int> >, std::less<std::__cxx11::basic_string<char> >, std::allocator<std::pair<const std::__cxx11::basic_string<char>, int> > >::_Alloc_node"** %__node_gen.addr, align 8
